Archive member included because of file (symbol)

archival/lib.a(bbunzip.o)     applets/built-in.o (gunzip_main)
archival/lib.a(gzip.o)        applets/built-in.o (gzip_main)
archival/lib.a(tar.o)         applets/built-in.o (tar_main)
archival/libunarchive/lib.a(check_header_gzip.o)
                              archival/lib.a(bbunzip.o) (check_header_gzip_or_die)
archival/libunarchive/lib.a(data_extract_all.o)
                              archival/lib.a(tar.o) (data_extract_all)
archival/libunarchive/lib.a(data_extract_to_stdout.o)
                              archival/lib.a(tar.o) (data_extract_to_stdout)
archival/libunarchive/lib.a(data_skip.o)
                              archival/libunarchive/lib.a(data_extract_all.o) (data_skip)
archival/libunarchive/lib.a(decompress_bunzip2.o)
                              applets/built-in.o (read_bunzip)
archival/libunarchive/lib.a(decompress_uncompress.o)
                              archival/lib.a(bbunzip.o) (uncompress)
archival/libunarchive/lib.a(decompress_unzip.o)
                              archival/lib.a(bbunzip.o) (unpack_gz_stream)
archival/libunarchive/lib.a(filter_accept_reject_list.o)
                              archival/lib.a(tar.o) (filter_accept_reject_list)
archival/libunarchive/lib.a(find_list_entry.o)
                              archival/lib.a(tar.o) (find_list_entry)
archival/libunarchive/lib.a(get_header_tar.o)
                              archival/lib.a(tar.o) (get_header_tar)
archival/libunarchive/lib.a(get_header_tar_gz.o)
                              archival/lib.a(tar.o) (get_header_tar_gz)
archival/libunarchive/lib.a(header_list.o)
                              archival/lib.a(tar.o) (header_list)
archival/libunarchive/lib.a(header_verbose_list.o)
                              archival/lib.a(tar.o) (header_verbose_list)
archival/libunarchive/lib.a(init_handle.o)
                              archival/lib.a(tar.o) (init_handle)
archival/libunarchive/lib.a(open_transformer.o)
                              archival/libunarchive/lib.a(get_header_tar_gz.o) (open_transformer)
archival/libunarchive/lib.a(seek_by_jump.o)
                              archival/libunarchive/lib.a(init_handle.o) (seek_by_jump)
archival/libunarchive/lib.a(seek_by_read.o)
                              archival/lib.a(tar.o) (seek_by_read)
archival/libunarchive/lib.a(data_align.o)
                              archival/libunarchive/lib.a(get_header_tar.o) (data_align)
archival/libunarchive/lib.a(filter_accept_all.o)
                              archival/libunarchive/lib.a(init_handle.o) (filter_accept_all)
archival/libunarchive/lib.a(header_skip.o)
                              archival/libunarchive/lib.a(init_handle.o) (header_skip)
console-tools/lib.a(clear.o)  applets/built-in.o (clear_main)
console-tools/lib.a(reset.o)  applets/built-in.o (reset_main)
coreutils/lib.a(basename.o)   applets/built-in.o (basename_main)
coreutils/lib.a(cat.o)        applets/built-in.o (cat_main)
coreutils/lib.a(chmod.o)      applets/built-in.o (chmod_main)
coreutils/lib.a(cp.o)         applets/built-in.o (cp_main)
coreutils/lib.a(cut.o)        applets/built-in.o (cut_main)
coreutils/lib.a(date.o)       applets/built-in.o (date_main)
coreutils/lib.a(df.o)         applets/built-in.o (df_main)
coreutils/lib.a(dirname.o)    applets/built-in.o (dirname_main)
coreutils/lib.a(du.o)         applets/built-in.o (du_main)
coreutils/lib.a(echo.o)       applets/built-in.o (echo_main)
coreutils/lib.a(env.o)        applets/built-in.o (env_main)
coreutils/lib.a(expr.o)       applets/built-in.o (expr_main)
coreutils/lib.a(false.o)      applets/built-in.o (false_main)
coreutils/lib.a(head.o)       applets/built-in.o (head_main)
coreutils/lib.a(hostid.o)     applets/built-in.o (hostid_main)
coreutils/lib.a(id.o)         applets/built-in.o (id_main)
coreutils/lib.a(ln.o)         applets/built-in.o (ln_main)
coreutils/lib.a(ls.o)         applets/built-in.o (ls_main)
coreutils/lib.a(md5_sha1_sum.o)
                              applets/built-in.o (md5_sha1_sum_main)
coreutils/lib.a(mkdir.o)      applets/built-in.o (mkdir_main)
coreutils/lib.a(mkfifo.o)     applets/built-in.o (mkfifo_main)
coreutils/lib.a(mknod.o)      applets/built-in.o (mknod_main)
coreutils/lib.a(mv.o)         applets/built-in.o (mv_main)
coreutils/lib.a(nice.o)       applets/built-in.o (nice_main)
coreutils/lib.a(printenv.o)   applets/built-in.o (printenv_main)
coreutils/lib.a(printf.o)     applets/built-in.o (printf_main)
coreutils/lib.a(pwd.o)        applets/built-in.o (pwd_main)
coreutils/lib.a(rm.o)         applets/built-in.o (rm_main)
coreutils/lib.a(rmdir.o)      applets/built-in.o (rmdir_main)
coreutils/lib.a(sleep.o)      applets/built-in.o (sleep_main)
coreutils/lib.a(tail.o)       applets/built-in.o (tail_main)
coreutils/lib.a(test.o)       applets/built-in.o (test_main)
coreutils/lib.a(touch.o)      applets/built-in.o (touch_main)
coreutils/lib.a(tr.o)         applets/built-in.o (tr_main)
coreutils/lib.a(true.o)       applets/built-in.o (true_main)
coreutils/lib.a(uname.o)      applets/built-in.o (uname_main)
coreutils/lib.a(usleep.o)     applets/built-in.o (usleep_main)
coreutils/lib.a(wc.o)         applets/built-in.o (wc_main)
coreutils/lib.a(yes.o)        applets/built-in.o (yes_main)
coreutils/libcoreutils/lib.a(cp_mv_stat.o)
                              coreutils/lib.a(cp.o) (cp_mv_stat2)
coreutils/libcoreutils/lib.a(getopt_mk_fifo_nod.o)
                              coreutils/lib.a(mkfifo.o) (getopt_mk_fifo_nod)
editors/lib.a(awk.o)          applets/built-in.o (awk_main)
editors/lib.a(sed.o)          applets/built-in.o (sed_main)
editors/lib.a(vi.o)           applets/built-in.o (vi_main)
findutils/lib.a(find.o)       applets/built-in.o (find_main)
findutils/lib.a(grep.o)       applets/built-in.o (grep_main)
findutils/lib.a(xargs.o)      applets/built-in.o (xargs_main)
init/lib.a(halt.o)            applets/built-in.o (halt_main)
libbb/lib.a(ask_confirmation.o)
                              coreutils/lib.a(mv.o) (bb_ask_confirmation)
libbb/lib.a(bb_basename.o)    applets/built-in.o (bb_basename)
libbb/lib.a(bb_pwd.o)         coreutils/lib.a(id.o) (bb_getpwuid)
libbb/lib.a(bb_strtonum.o)    applets/built-in.o (bb_strtoul)
libbb/lib.a(compare_string_array.o)
                              coreutils/lib.a(expr.o) (index_in_strings)
libbb/lib.a(concat_path_file.o)
                              archival/libunarchive/lib.a(get_header_tar.o) (concat_path_file)
libbb/lib.a(concat_subpath_file.o)
                              coreutils/lib.a(du.o) (concat_subpath_file)
libbb/lib.a(copy_file.o)      coreutils/lib.a(cp.o) (copy_file)
libbb/lib.a(copyfd.o)         archival/lib.a(tar.o) (bb_copyfd_exact_size)
libbb/lib.a(crc32.o)          archival/lib.a(gzip.o) (crc32_filltable)
libbb/lib.a(default_error_retval.o)
                              applets/built-in.o (xfunc_error_retval)
libbb/lib.a(error_msg.o)      archival/lib.a(bbunzip.o) (bb_error_msg)
libbb/lib.a(error_msg_and_die.o)
                              applets/built-in.o (xfunc_die)
libbb/lib.a(fclose_nonstdin.o)
                              coreutils/lib.a(head.o) (fclose_if_not_stdin)
libbb/lib.a(fflush_stdout_and_exit.o)
                              coreutils/lib.a(df.o) (fflush_stdout_and_exit)
libbb/lib.a(find_mount_point.o)
                              coreutils/lib.a(df.o) (find_mount_point)
libbb/lib.a(find_root_device.o)
                              coreutils/lib.a(df.o) (find_block_device)
libbb/lib.a(full_write.o)     archival/libunarchive/lib.a(decompress_uncompress.o) (full_write)
libbb/lib.a(get_last_path_component.o)
                              coreutils/lib.a(basename.o) (bb_get_last_path_component)
libbb/lib.a(get_line_from_file.o)
                              editors/lib.a(sed.o) (bb_get_chunk_from_file)
libbb/lib.a(getopt32.o)       archival/lib.a(bbunzip.o) (getopt32)
libbb/lib.a(human_readable.o)
                              coreutils/lib.a(df.o) (make_human_readable_str)
libbb/lib.a(inode_hash.o)     coreutils/lib.a(du.o) (is_in_ino_dev_hashtable)
libbb/lib.a(isdirectory.o)    coreutils/lib.a(ln.o) (is_directory)
libbb/lib.a(last_char_is.o)   archival/lib.a(tar.o) (last_char_is)
libbb/lib.a(llist.o)          archival/libunarchive/lib.a(get_header_tar.o) (llist_add_to)
libbb/lib.a(make_directory.o)
                              archival/libunarchive/lib.a(data_extract_all.o) (bb_make_directory)
libbb/lib.a(makedev.o)        archival/libunarchive/lib.a(get_header_tar.o) (bb_makedev)
libbb/lib.a(md5.o)            coreutils/lib.a(md5_sha1_sum.o) (md5_begin)
libbb/lib.a(messages.o)       applets/built-in.o (bb_banner)
libbb/lib.a(mode_string.o)    archival/libunarchive/lib.a(header_verbose_list.o) (bb_mode_string)
libbb/lib.a(mtab_file.o)      coreutils/lib.a(df.o) (bb_path_mtab_file)
libbb/lib.a(parse_mode.o)     coreutils/lib.a(chmod.o) (bb_parse_mode)
libbb/lib.a(perror_msg.o)     archival/lib.a(bbunzip.o) (bb_perror_msg)
libbb/lib.a(perror_msg_and_die.o)
                              applets/built-in.o (bb_perror_msg_and_die)
libbb/lib.a(perror_nomsg_and_die.o)
                              coreutils/lib.a(sleep.o) (bb_perror_nomsg_and_die)
libbb/lib.a(process_escape_sequence.o)
                              coreutils/lib.a(echo.o) (bb_process_escape_sequence)
libbb/lib.a(procps.o)         archival/lib.a(tar.o) (get_cached_username)
libbb/lib.a(read.o)           archival/lib.a(gzip.o) (safe_read)
libbb/lib.a(recursive_action.o)
                              archival/lib.a(tar.o) (recursive_action)
libbb/lib.a(remove_file.o)    coreutils/lib.a(mv.o) (remove_file)
libbb/lib.a(safe_strncpy.o)   archival/lib.a(tar.o) (safe_strncpy)
libbb/lib.a(safe_write.o)     archival/libunarchive/lib.a(decompress_bunzip2.o) (safe_write)
libbb/lib.a(skip_whitespace.o)
                              applets/built-in.o (skip_whitespace)
libbb/lib.a(verror_msg.o)     libbb/lib.a(error_msg.o) (bb_verror_msg)
libbb/lib.a(vfork_daemon_rexec.o)
                              findutils/lib.a(find.o) (spawn_and_wait)
libbb/lib.a(wfopen.o)         coreutils/lib.a(cut.o) (fopen_or_warn)
libbb/lib.a(wfopen_input.o)   coreutils/lib.a(head.o) (fopen_or_warn_stdin)
libbb/lib.a(xatonum.o)        findutils/lib.a(find.o) (xatoull_sfx)
libbb/lib.a(xfuncs.o)         applets/built-in.o (malloc_or_warn)
libbb/lib.a(xgetcwd.o)        coreutils/lib.a(pwd.o) (xrealloc_getcwd_or_warn)
libbb/lib.a(xreadlink.o)      archival/lib.a(tar.o) (xmalloc_readlink_or_warn)
libbb/lib.a(xregcomp.o)       coreutils/lib.a(expr.o) (xregcomp)
loginutils/lib.a(addgroup.o)  applets/built-in.o (addgroup_main)
loginutils/lib.a(adduser.o)   applets/built-in.o (adduser_main)
loginutils/lib.a(deluser.o)   applets/built-in.o (deluser_main)
loginutils/lib.a(passwd.o)    applets/built-in.o (passwd_main)
loginutils/lib.a(su.o)        applets/built-in.o (su_main)
miscutils/lib.a(crond.o)      applets/built-in.o (crond_main)
miscutils/lib.a(crontab.o)    applets/built-in.o (crontab_main)
miscutils/lib.a(less.o)       applets/built-in.o (less_main)
modutils/lib.a(insmod.o)      applets/built-in.o (insmod_main)
modutils/lib.a(lsmod.o)       applets/built-in.o (lsmod_main)
modutils/lib.a(rmmod.o)       applets/built-in.o (rmmod_main)
networking/lib.a(arp.o)       applets/built-in.o (arp_main)
networking/lib.a(hostname.o)  applets/built-in.o (hostname_main)
networking/lib.a(ifconfig.o)  applets/built-in.o (ifconfig_main)
networking/lib.a(interface.o)
                              networking/lib.a(arp.o) (get_aftype)
networking/lib.a(ip.o)        applets/built-in.o (ipaddr_main)
networking/lib.a(netstat.o)   applets/built-in.o (netstat_main)
networking/lib.a(nslookup.o)  applets/built-in.o (nslookup_main)
networking/lib.a(ping.o)      applets/built-in.o (ping_main)
networking/lib.a(route.o)     networking/lib.a(netstat.o) (bb_displayroutes)
networking/lib.a(telnet.o)    applets/built-in.o (telnet_main)
networking/lib.a(telnetd.o)   applets/built-in.o (telnetd_main)
networking/lib.a(tftp.o)      applets/built-in.o (tftp_main)
networking/libiproute/lib.a(ip_parse_common_args.o)
                              networking/lib.a(ip.o) (ip_parse_common_args)
networking/libiproute/lib.a(ipaddress.o)
                              networking/lib.a(ip.o) (do_ipaddr)
networking/libiproute/lib.a(iplink.o)
                              networking/lib.a(ip.o) (do_iplink)
networking/libiproute/lib.a(iproute.o)
                              networking/lib.a(ip.o) (do_iproute)
networking/libiproute/lib.a(iprule.o)
                              networking/lib.a(ip.o) (do_iprule)
networking/libiproute/lib.a(iptunnel.o)
                              networking/lib.a(ip.o) (do_iptunnel)
networking/libiproute/lib.a(libnetlink.o)
                              networking/libiproute/lib.a(ipaddress.o) (xrtnl_open)
networking/libiproute/lib.a(ll_addr.o)
                              networking/libiproute/lib.a(ipaddress.o) (ll_addr_n2a)
networking/libiproute/lib.a(ll_map.o)
                              networking/libiproute/lib.a(ipaddress.o) (ll_remember_index)
networking/libiproute/lib.a(ll_types.o)
                              networking/libiproute/lib.a(ipaddress.o) (ll_type_n2a)
networking/libiproute/lib.a(rt_names.o)
                              networking/libiproute/lib.a(iproute.o) (rtnl_rtprot_a2n)
networking/libiproute/lib.a(rtm_map.o)
                              networking/libiproute/lib.a(iproute.o) (rtnl_rtntype_n2a)
networking/libiproute/lib.a(utils.o)
                              networking/libiproute/lib.a(iplink.o) (get_integer)
procps/lib.a(free.o)          applets/built-in.o (free_main)
procps/lib.a(kill.o)          applets/built-in.o (kill_main)
procps/lib.a(pidof.o)         applets/built-in.o (pidof_main)
procps/lib.a(ps.o)            applets/built-in.o (ps_main)
procps/lib.a(sysctl.o)        applets/built-in.o (sysctl_main)
procps/lib.a(top.o)           applets/built-in.o (top_main)
procps/lib.a(uptime.o)        applets/built-in.o (uptime_main)
shell/lib.a(ash.o)            applets/built-in.o (ash_main)
sysklogd/lib.a(klogd.o)       applets/built-in.o (klogd_main)
sysklogd/lib.a(logread.o)     applets/built-in.o (logread_main)
sysklogd/lib.a(syslogd.o)     applets/built-in.o (syslogd_main)
util-linux/lib.a(dmesg.o)     applets/built-in.o (dmesg_main)
util-linux/lib.a(more.o)      applets/built-in.o (more_main)
util-linux/lib.a(mount.o)     applets/built-in.o (mount_main)
util-linux/lib.a(pivot_root.o)
                              applets/built-in.o (pivot_root_main)
util-linux/lib.a(rdate.o)     applets/built-in.o (rdate_main)
util-linux/lib.a(umount.o)    applets/built-in.o (umount_main)
libbb/lib.a(bb_askpass.o)     loginutils/lib.a(passwd.o) (bb_askpass)
libbb/lib.a(bb_do_delay.o)    loginutils/lib.a(passwd.o) (bb_do_delay)
libbb/lib.a(change_identity.o)
                              miscutils/lib.a(crond.o) (change_identity_e2str)
libbb/lib.a(chomp.o)          networking/lib.a(hostname.o) (chomp)
libbb/lib.a(correct_password.o)
                              loginutils/lib.a(su.o) (correct_password)
libbb/lib.a(create_icmp6_socket.o)
                              networking/lib.a(ping.o) (create_icmp6_socket)
libbb/lib.a(create_icmp_socket.o)
                              networking/lib.a(ping.o) (create_icmp_socket)
libbb/lib.a(crypt_make_salt.o)
                              loginutils/lib.a(passwd.o) (crypt_make_salt)
libbb/lib.a(device_open.o)    sysklogd/lib.a(syslogd.o) (device_open)
libbb/lib.a(find_pid_by_name.o)
                              procps/lib.a(kill.o) (find_pid_by_name)
libbb/lib.a(herror_msg.o)     util-linux/lib.a(mount.o) (bb_herror_msg)
libbb/lib.a(herror_msg_and_die.o)
                              networking/lib.a(arp.o) (bb_herror_msg_and_die)
libbb/lib.a(inet_common.o)    networking/lib.a(interface.o) (INET_resolve)
libbb/lib.a(info_msg.o)       loginutils/lib.a(passwd.o) (bb_info_msg)
libbb/lib.a(kernel_version.o)
                              modutils/lib.a(rmmod.o) (get_linux_version_code)
libbb/lib.a(lineedit.o)       shell/lib.a(ash.o) (read_line_input)
libbb/lib.a(login.o)          networking/lib.a(telnetd.o) (print_login_issue)
libbb/lib.a(loop.o)           util-linux/lib.a(mount.o) (del_loop)
libbb/lib.a(match_fstype.o)   util-linux/lib.a(mount.o) (match_fstype)
libbb/lib.a(obscure.o)        loginutils/lib.a(passwd.o) (obscure)
libbb/lib.a(pidfile.o)        miscutils/lib.a(crond.o) (write_pidfile)
libbb/lib.a(pw_encrypt.o)     loginutils/lib.a(passwd.o) (pw_encrypt)
libbb/lib.a(run_shell.o)      loginutils/lib.a(su.o) (run_shell)
libbb/lib.a(setup_environment.o)
                              loginutils/lib.a(su.o) (setup_environment)
libbb/lib.a(simplify_path.o)  util-linux/lib.a(mount.o) (bb_simplify_path)
libbb/lib.a(time.o)           networking/lib.a(ping.o) (monotonic_us)
libbb/lib.a(trim.o)           miscutils/lib.a(crond.o) (trim)
libbb/lib.a(u_signal_names.o)
                              procps/lib.a(kill.o) (get_signum)
libbb/lib.a(update_passwd.o)  loginutils/lib.a(passwd.o) (update_passwd)
libbb/lib.a(warn_ignoring_args.o)
                              networking/libiproute/lib.a(iprule.o) (bb_warn_ignoring_args)
libbb/lib.a(xconnect.o)       networking/lib.a(ping.o) (setsockopt_broadcast)
libbb/lib.a(xgethostbyname.o)
                              networking/lib.a(hostname.o) (xgethostbyname)
/projects/hnd/tools/linux/hndtools-arm-linux-2.6.36-uclibc-4.5.3/lib/gcc/arm-brcm-linux-uclibcgnueabi/4.5.3/libgcc.a(_udivsi3.o)
                              coreutils/lib.a(ls.o) (__aeabi_uidiv)
/projects/hnd/tools/linux/hndtools-arm-linux-2.6.36-uclibc-4.5.3/lib/gcc/arm-brcm-linux-uclibcgnueabi/4.5.3/libgcc.a(_divsi3.o)
                              coreutils/lib.a(expr.o) (__aeabi_idiv)
/projects/hnd/tools/linux/hndtools-arm-linux-2.6.36-uclibc-4.5.3/lib/gcc/arm-brcm-linux-uclibcgnueabi/4.5.3/libgcc.a(_lshrdi3.o)
                              libbb/lib.a(md5.o) (__aeabi_llsr)
/projects/hnd/tools/linux/hndtools-arm-linux-2.6.36-uclibc-4.5.3/lib/gcc/arm-brcm-linux-uclibcgnueabi/4.5.3/libgcc.a(_arm_addsubdf3.o)
                              editors/lib.a(awk.o) (__aeabi_dsub)
/projects/hnd/tools/linux/hndtools-arm-linux-2.6.36-uclibc-4.5.3/lib/gcc/arm-brcm-linux-uclibcgnueabi/4.5.3/libgcc.a(_arm_muldivdf3.o)
                              editors/lib.a(awk.o) (__aeabi_dmul)
/projects/hnd/tools/linux/hndtools-arm-linux-2.6.36-uclibc-4.5.3/lib/gcc/arm-brcm-linux-uclibcgnueabi/4.5.3/libgcc.a(_arm_cmpdf2.o)
                              editors/lib.a(awk.o) (__aeabi_dcmpeq)
/projects/hnd/tools/linux/hndtools-arm-linux-2.6.36-uclibc-4.5.3/lib/gcc/arm-brcm-linux-uclibcgnueabi/4.5.3/libgcc.a(_arm_fixdfsi.o)
                              editors/lib.a(awk.o) (__aeabi_d2iz)
/projects/hnd/tools/linux/hndtools-arm-linux-2.6.36-uclibc-4.5.3/lib/gcc/arm-brcm-linux-uclibcgnueabi/4.5.3/libgcc.a(_arm_fixunsdfsi.o)
                              editors/lib.a(awk.o) (__aeabi_d2uiz)
/projects/hnd/tools/linux/hndtools-arm-linux-2.6.36-uclibc-4.5.3/lib/gcc/arm-brcm-linux-uclibcgnueabi/4.5.3/libgcc.a(_aeabi_ldivmod.o)
                              archival/libunarchive/lib.a(data_align.o) (__aeabi_ldivmod)
/projects/hnd/tools/linux/hndtools-arm-linux-2.6.36-uclibc-4.5.3/lib/gcc/arm-brcm-linux-uclibcgnueabi/4.5.3/libgcc.a(_aeabi_uldivmod.o)
                              coreutils/lib.a(df.o) (__aeabi_uldivmod)
/projects/hnd/tools/linux/hndtools-arm-linux-2.6.36-uclibc-4.5.3/lib/gcc/arm-brcm-linux-uclibcgnueabi/4.5.3/libgcc.a(_dvmd_lnx.o)
                              /projects/hnd/tools/linux/hndtools-arm-linux-2.6.36-uclibc-4.5.3/lib/gcc/arm-brcm-linux-uclibcgnueabi/4.5.3/libgcc.a(_udivsi3.o) (__aeabi_idiv0)
/projects/hnd/tools/linux/hndtools-arm-linux-2.6.36-uclibc-4.5.3/lib/gcc/arm-brcm-linux-uclibcgnueabi/4.5.3/libgcc.a(bpabi.o)
                              /projects/hnd/tools/linux/hndtools-arm-linux-2.6.36-uclibc-4.5.3/lib/gcc/arm-brcm-linux-uclibcgnueabi/4.5.3/libgcc.a(_aeabi_ldivmod.o) (__gnu_ldivmod_helper)
/projects/hnd/tools/linux/hndtools-arm-linux-2.6.36-uclibc-4.5.3/lib/gcc/arm-brcm-linux-uclibcgnueabi/4.5.3/libgcc.a(_divdi3.o)
                              /projects/hnd/tools/linux/hndtools-arm-linux-2.6.36-uclibc-4.5.3/lib/gcc/arm-brcm-linux-uclibcgnueabi/4.5.3/libgcc.a(bpabi.o) (__divdi3)
/projects/hnd/tools/linux/hndtools-arm-linux-2.6.36-uclibc-4.5.3/lib/gcc/arm-brcm-linux-uclibcgnueabi/4.5.3/libgcc.a(_udivdi3.o)
                              /projects/hnd/tools/linux/hndtools-arm-linux-2.6.36-uclibc-4.5.3/lib/gcc/arm-brcm-linux-uclibcgnueabi/4.5.3/libgcc.a(bpabi.o) (__udivdi3)
/projects/hnd/tools/linux/hndtools-arm-linux-2.6.36-uclibc-4.5.3/arm-brcm-linux-uclibcgnueabi/sysroot/usr/lib/uclibc_nonshared.a(atexit.os)
                              editors/lib.a(sed.o) (atexit)

Allocating common symbols
Common symbol       size              file

bb_common_bufsiz1   0x1001            libbb/lib.a(messages.o)
wrote_pidfile       0x4               libbb/lib.a(pidfile.o)
const_int_0         0x4               libbb/lib.a(messages.o)
option_mask32       0x4               libbb/lib.a(getopt32.o)
interface_opt_a     0x4               networking/lib.a(interface.o)
applet_name         0x4               applets/built-in.o
die_sleep           0x4               libbb/lib.a(error_msg_and_die.o)
opt_complementary   0x4               libbb/lib.a(getopt32.o)
global_crc32_table  0x4               libbb/lib.a(crc32.o)
current_applet      0x4               applets/built-in.o
oneline             0x4               networking/libiproute/lib.a(ip_parse_common_args.o)
applet_long_options
                    0x4               libbb/lib.a(getopt32.o)
_SL_                0x1               networking/libiproute/lib.a(ip_parse_common_args.o)

Discarded input sections

 .data          0x00000000        0x4 /projects/hnd/tools/linux/hndtools-arm-linux-2.6.36-uclibc-4.5.3/arm-brcm-linux-uclibcgnueabi/sysroot/usr/lib/crt1.o
 .bss           0x00000000        0x0 /projects/hnd/tools/linux/hndtools-arm-linux-2.6.36-uclibc-4.5.3/arm-brcm-linux-uclibcgnueabi/sysroot/usr/lib/crt1.o
 .note.GNU-stack
                0x00000000        0x0 /projects/hnd/tools/linux/hndtools-arm-linux-2.6.36-uclibc-4.5.3/arm-brcm-linux-uclibcgnueabi/sysroot/usr/lib/crt1.o
 .text          0x00000000        0x0 /projects/hnd/tools/linux/hndtools-arm-linux-2.6.36-uclibc-4.5.3/arm-brcm-linux-uclibcgnueabi/sysroot/usr/lib/crti.o
 .data          0x00000000        0x0 /projects/hnd/tools/linux/hndtools-arm-linux-2.6.36-uclibc-4.5.3/arm-brcm-linux-uclibcgnueabi/sysroot/usr/lib/crti.o
 .bss           0x00000000        0x0 /projects/hnd/tools/linux/hndtools-arm-linux-2.6.36-uclibc-4.5.3/arm-brcm-linux-uclibcgnueabi/sysroot/usr/lib/crti.o
 .note.GNU-stack
                0x00000000        0x0 /projects/hnd/tools/linux/hndtools-arm-linux-2.6.36-uclibc-4.5.3/arm-brcm-linux-uclibcgnueabi/sysroot/usr/lib/crti.o
 .note.GNU-stack
                0x00000000        0x0 /projects/hnd/tools/linux/hndtools-arm-linux-2.6.36-uclibc-4.5.3/lib/gcc/arm-brcm-linux-uclibcgnueabi/4.5.3/crtbegin.o
 .text          0x00000000        0x0 applets/built-in.o
 .bss           0x00000000        0x0 applets/built-in.o
 .note.GNU-stack
                0x00000000        0x0 applets/built-in.o
 .text          0x00000000        0x0 archival/lib.a(bbunzip.o)
 .data          0x00000000        0x0 archival/lib.a(bbunzip.o)
 .bss           0x00000000        0x0 archival/lib.a(bbunzip.o)
 .note.GNU-stack
                0x00000000        0x0 archival/lib.a(bbunzip.o)
 .text          0x00000000        0x0 archival/lib.a(gzip.o)
 .data          0x00000000        0x0 archival/lib.a(gzip.o)
 .bss           0x00000000        0x0 archival/lib.a(gzip.o)
 .note.GNU-stack
                0x00000000        0x0 archival/lib.a(gzip.o)
 .text          0x00000000        0x0 archival/lib.a(tar.o)
 .data          0x00000000        0x0 archival/lib.a(tar.o)
 .bss           0x00000000        0x0 archival/lib.a(tar.o)
 .note.GNU-stack
                0x00000000        0x0 archival/lib.a(tar.o)
 .text          0x00000000        0x0 archival/libunarchive/lib.a(check_header_gzip.o)
 .data          0x00000000        0x0 archival/libunarchive/lib.a(check_header_gzip.o)
 .bss           0x00000000        0x0 archival/libunarchive/lib.a(check_header_gzip.o)
 .note.GNU-stack
                0x00000000        0x0 archival/libunarchive/lib.a(check_header_gzip.o)
 .text          0x00000000        0x0 archival/libunarchive/lib.a(data_extract_all.o)
 .data          0x00000000        0x0 archival/libunarchive/lib.a(data_extract_all.o)
 .bss           0x00000000        0x0 archival/libunarchive/lib.a(data_extract_all.o)
 .note.GNU-stack
                0x00000000        0x0 archival/libunarchive/lib.a(data_extract_all.o)
 .text          0x00000000        0x0 archival/libunarchive/lib.a(data_extract_to_stdout.o)
 .data          0x00000000        0x0 archival/libunarchive/lib.a(data_extract_to_stdout.o)
 .bss           0x00000000        0x0 archival/libunarchive/lib.a(data_extract_to_stdout.o)
 .note.GNU-stack
                0x00000000        0x0 archival/libunarchive/lib.a(data_extract_to_stdout.o)
 .text          0x00000000        0x0 archival/libunarchive/lib.a(data_skip.o)
 .data          0x00000000        0x0 archival/libunarchive/lib.a(data_skip.o)
 .bss           0x00000000        0x0 archival/libunarchive/lib.a(data_skip.o)
 .note.GNU-stack
                0x00000000        0x0 archival/libunarchive/lib.a(data_skip.o)
 .text          0x00000000        0x0 archival/libunarchive/lib.a(decompress_bunzip2.o)
 .data          0x00000000        0x0 archival/libunarchive/lib.a(decompress_bunzip2.o)
 .bss           0x00000000        0x0 archival/libunarchive/lib.a(decompress_bunzip2.o)
 .text.unpack_bz2_stream
                0x00000000       0xd8 archival/libunarchive/lib.a(decompress_bunzip2.o)
 .rodata.str1.1
                0x00000000       0x5f archival/libunarchive/lib.a(decompress_bunzip2.o)
 .note.GNU-stack
                0x00000000        0x0 archival/libunarchive/lib.a(decompress_bunzip2.o)
 .text          0x00000000        0x0 archival/libunarchive/lib.a(decompress_uncompress.o)
 .data          0x00000000        0x0 archival/libunarchive/lib.a(decompress_uncompress.o)
 .bss           0x00000000        0x0 archival/libunarchive/lib.a(decompress_uncompress.o)
 .note.GNU-stack
                0x00000000        0x0 archival/libunarchive/lib.a(decompress_uncompress.o)
 .text          0x00000000        0x0 archival/libunarchive/lib.a(decompress_unzip.o)
 .data          0x00000000        0x0 archival/libunarchive/lib.a(decompress_unzip.o)
 .bss           0x00000000        0x0 archival/libunarchive/lib.a(decompress_unzip.o)
 .text.inflate_unzip
                0x00000000       0x64 archival/libunarchive/lib.a(decompress_unzip.o)
 .note.GNU-stack
                0x00000000        0x0 archival/libunarchive/lib.a(decompress_unzip.o)
 .text          0x00000000        0x0 archival/libunarchive/lib.a(filter_accept_reject_list.o)
 .data          0x00000000        0x0 archival/libunarchive/lib.a(filter_accept_reject_list.o)
 .bss           0x00000000        0x0 archival/libunarchive/lib.a(filter_accept_reject_list.o)
 .note.GNU-stack
                0x00000000        0x0 archival/libunarchive/lib.a(filter_accept_reject_list.o)
 .text          0x00000000        0x0 archival/libunarchive/lib.a(find_list_entry.o)
 .data          0x00000000        0x0 archival/libunarchive/lib.a(find_list_entry.o)
 .bss           0x00000000        0x0 archival/libunarchive/lib.a(find_list_entry.o)
 .note.GNU-stack
                0x00000000        0x0 archival/libunarchive/lib.a(find_list_entry.o)
 .text          0x00000000        0x0 archival/libunarchive/lib.a(get_header_tar.o)
 .data          0x00000000        0x0 archival/libunarchive/lib.a(get_header_tar.o)
 .bss           0x00000000        0x0 archival/libunarchive/lib.a(get_header_tar.o)
 .note.GNU-stack
                0x00000000        0x0 archival/libunarchive/lib.a(get_header_tar.o)
 .text          0x00000000        0x0 archival/libunarchive/lib.a(get_header_tar_gz.o)
 .data          0x00000000        0x0 archival/libunarchive/lib.a(get_header_tar_gz.o)
 .bss           0x00000000        0x0 archival/libunarchive/lib.a(get_header_tar_gz.o)
 .note.GNU-stack
                0x00000000        0x0 archival/libunarchive/lib.a(get_header_tar_gz.o)
 .text          0x00000000        0x0 archival/libunarchive/lib.a(header_list.o)
 .data          0x00000000        0x0 archival/libunarchive/lib.a(header_list.o)
 .bss           0x00000000        0x0 archival/libunarchive/lib.a(header_list.o)
 .note.GNU-stack
                0x00000000        0x0 archival/libunarchive/lib.a(header_list.o)
 .text          0x00000000        0x0 archival/libunarchive/lib.a(header_verbose_list.o)
 .data          0x00000000        0x0 archival/libunarchive/lib.a(header_verbose_list.o)
 .bss           0x00000000        0x0 archival/libunarchive/lib.a(header_verbose_list.o)
 .note.GNU-stack
                0x00000000        0x0 archival/libunarchive/lib.a(header_verbose_list.o)
 .text          0x00000000        0x0 archival/libunarchive/lib.a(init_handle.o)
 .data          0x00000000        0x0 archival/libunarchive/lib.a(init_handle.o)
 .bss           0x00000000        0x0 archival/libunarchive/lib.a(init_handle.o)
 .note.GNU-stack
                0x00000000        0x0 archival/libunarchive/lib.a(init_handle.o)
 .text          0x00000000        0x0 archival/libunarchive/lib.a(open_transformer.o)
 .data          0x00000000        0x0 archival/libunarchive/lib.a(open_transformer.o)
 .bss           0x00000000        0x0 archival/libunarchive/lib.a(open_transformer.o)
 .note.GNU-stack
                0x00000000        0x0 archival/libunarchive/lib.a(open_transformer.o)
 .text          0x00000000        0x0 archival/libunarchive/lib.a(seek_by_jump.o)
 .data          0x00000000        0x0 archival/libunarchive/lib.a(seek_by_jump.o)
 .bss           0x00000000        0x0 archival/libunarchive/lib.a(seek_by_jump.o)
 .note.GNU-stack
                0x00000000        0x0 archival/libunarchive/lib.a(seek_by_jump.o)
 .text          0x00000000        0x0 archival/libunarchive/lib.a(seek_by_read.o)
 .data          0x00000000        0x0 archival/libunarchive/lib.a(seek_by_read.o)
 .bss           0x00000000        0x0 archival/libunarchive/lib.a(seek_by_read.o)
 .note.GNU-stack
                0x00000000        0x0 archival/libunarchive/lib.a(seek_by_read.o)
 .text          0x00000000        0x0 archival/libunarchive/lib.a(data_align.o)
 .data          0x00000000        0x0 archival/libunarchive/lib.a(data_align.o)
 .bss           0x00000000        0x0 archival/libunarchive/lib.a(data_align.o)
 .note.GNU-stack
                0x00000000        0x0 archival/libunarchive/lib.a(data_align.o)
 .text          0x00000000        0x0 archival/libunarchive/lib.a(filter_accept_all.o)
 .data          0x00000000        0x0 archival/libunarchive/lib.a(filter_accept_all.o)
 .bss           0x00000000        0x0 archival/libunarchive/lib.a(filter_accept_all.o)
 .note.GNU-stack
                0x00000000        0x0 archival/libunarchive/lib.a(filter_accept_all.o)
 .text          0x00000000        0x0 archival/libunarchive/lib.a(header_skip.o)
 .data          0x00000000        0x0 archival/libunarchive/lib.a(header_skip.o)
 .bss           0x00000000        0x0 archival/libunarchive/lib.a(header_skip.o)
 .note.GNU-stack
                0x00000000        0x0 archival/libunarchive/lib.a(header_skip.o)
 .text          0x00000000        0x0 console-tools/lib.a(clear.o)
 .data          0x00000000        0x0 console-tools/lib.a(clear.o)
 .bss           0x00000000        0x0 console-tools/lib.a(clear.o)
 .note.GNU-stack
                0x00000000        0x0 console-tools/lib.a(clear.o)
 .text          0x00000000        0x0 console-tools/lib.a(reset.o)
 .data          0x00000000        0x0 console-tools/lib.a(reset.o)
 .bss           0x00000000        0x0 console-tools/lib.a(reset.o)
 .note.GNU-stack
                0x00000000        0x0 console-tools/lib.a(reset.o)
 .text          0x00000000        0x0 coreutils/lib.a(basename.o)
 .data          0x00000000        0x0 coreutils/lib.a(basename.o)
 .bss           0x00000000        0x0 coreutils/lib.a(basename.o)
 .note.GNU-stack
                0x00000000        0x0 coreutils/lib.a(basename.o)
 .text          0x00000000        0x0 coreutils/lib.a(cat.o)
 .data          0x00000000        0x0 coreutils/lib.a(cat.o)
 .bss           0x00000000        0x0 coreutils/lib.a(cat.o)
 .note.GNU-stack
                0x00000000        0x0 coreutils/lib.a(cat.o)
 .text          0x00000000        0x0 coreutils/lib.a(chmod.o)
 .data          0x00000000        0x0 coreutils/lib.a(chmod.o)
 .bss           0x00000000        0x0 coreutils/lib.a(chmod.o)
 .note.GNU-stack
                0x00000000        0x0 coreutils/lib.a(chmod.o)
 .text          0x00000000        0x0 coreutils/lib.a(cp.o)
 .data          0x00000000        0x0 coreutils/lib.a(cp.o)
 .bss           0x00000000        0x0 coreutils/lib.a(cp.o)
 .note.GNU-stack
                0x00000000        0x0 coreutils/lib.a(cp.o)
 .text          0x00000000        0x0 coreutils/lib.a(cut.o)
 .data          0x00000000        0x0 coreutils/lib.a(cut.o)
 .bss           0x00000000        0x0 coreutils/lib.a(cut.o)
 .note.GNU-stack
                0x00000000        0x0 coreutils/lib.a(cut.o)
 .text          0x00000000        0x0 coreutils/lib.a(date.o)
 .data          0x00000000        0x0 coreutils/lib.a(date.o)
 .bss           0x00000000        0x0 coreutils/lib.a(date.o)
 .note.GNU-stack
                0x00000000        0x0 coreutils/lib.a(date.o)
 .text          0x00000000        0x0 coreutils/lib.a(df.o)
 .data          0x00000000        0x0 coreutils/lib.a(df.o)
 .bss           0x00000000        0x0 coreutils/lib.a(df.o)
 .note.GNU-stack
                0x00000000        0x0 coreutils/lib.a(df.o)
 .text          0x00000000        0x0 coreutils/lib.a(dirname.o)
 .data          0x00000000        0x0 coreutils/lib.a(dirname.o)
 .bss           0x00000000        0x0 coreutils/lib.a(dirname.o)
 .note.GNU-stack
                0x00000000        0x0 coreutils/lib.a(dirname.o)
 .text          0x00000000        0x0 coreutils/lib.a(du.o)
 .data          0x00000000        0x0 coreutils/lib.a(du.o)
 .bss           0x00000000        0x0 coreutils/lib.a(du.o)
 .note.GNU-stack
                0x00000000        0x0 coreutils/lib.a(du.o)
 .text          0x00000000        0x0 coreutils/lib.a(echo.o)
 .data          0x00000000        0x0 coreutils/lib.a(echo.o)
 .bss           0x00000000        0x0 coreutils/lib.a(echo.o)
 .note.GNU-stack
                0x00000000        0x0 coreutils/lib.a(echo.o)
 .text          0x00000000        0x0 coreutils/lib.a(env.o)
 .data          0x00000000        0x0 coreutils/lib.a(env.o)
 .bss           0x00000000        0x0 coreutils/lib.a(env.o)
 .note.GNU-stack
                0x00000000        0x0 coreutils/lib.a(env.o)
 .text          0x00000000        0x0 coreutils/lib.a(expr.o)
 .data          0x00000000        0x0 coreutils/lib.a(expr.o)
 .bss           0x00000000        0x0 coreutils/lib.a(expr.o)
 .note.GNU-stack
                0x00000000        0x0 coreutils/lib.a(expr.o)
 .text          0x00000000        0x0 coreutils/lib.a(false.o)
 .data          0x00000000        0x0 coreutils/lib.a(false.o)
 .bss           0x00000000        0x0 coreutils/lib.a(false.o)
 .note.GNU-stack
                0x00000000        0x0 coreutils/lib.a(false.o)
 .text          0x00000000        0x0 coreutils/lib.a(head.o)
 .data          0x00000000        0x0 coreutils/lib.a(head.o)
 .bss           0x00000000        0x0 coreutils/lib.a(head.o)
 .note.GNU-stack
                0x00000000        0x0 coreutils/lib.a(head.o)
 .text          0x00000000        0x0 coreutils/lib.a(hostid.o)
 .data          0x00000000        0x0 coreutils/lib.a(hostid.o)
 .bss           0x00000000        0x0 coreutils/lib.a(hostid.o)
 .note.GNU-stack
                0x00000000        0x0 coreutils/lib.a(hostid.o)
 .text          0x00000000        0x0 coreutils/lib.a(id.o)
 .data          0x00000000        0x0 coreutils/lib.a(id.o)
 .bss           0x00000000        0x0 coreutils/lib.a(id.o)
 .note.GNU-stack
                0x00000000        0x0 coreutils/lib.a(id.o)
 .text          0x00000000        0x0 coreutils/lib.a(ln.o)
 .data          0x00000000        0x0 coreutils/lib.a(ln.o)
 .bss           0x00000000        0x0 coreutils/lib.a(ln.o)
 .note.GNU-stack
                0x00000000        0x0 coreutils/lib.a(ln.o)
 .text          0x00000000        0x0 coreutils/lib.a(ls.o)
 .data          0x00000000        0x0 coreutils/lib.a(ls.o)
 .bss           0x00000000        0x0 coreutils/lib.a(ls.o)
 .note.GNU-stack
                0x00000000        0x0 coreutils/lib.a(ls.o)
 .text          0x00000000        0x0 coreutils/lib.a(md5_sha1_sum.o)
 .data          0x00000000        0x0 coreutils/lib.a(md5_sha1_sum.o)
 .bss           0x00000000        0x0 coreutils/lib.a(md5_sha1_sum.o)
 .note.GNU-stack
                0x00000000        0x0 coreutils/lib.a(md5_sha1_sum.o)
 .text          0x00000000        0x0 coreutils/lib.a(mkdir.o)
 .data          0x00000000        0x0 coreutils/lib.a(mkdir.o)
 .bss           0x00000000        0x0 coreutils/lib.a(mkdir.o)
 .note.GNU-stack
                0x00000000        0x0 coreutils/lib.a(mkdir.o)
 .text          0x00000000        0x0 coreutils/lib.a(mkfifo.o)
 .data          0x00000000        0x0 coreutils/lib.a(mkfifo.o)
 .bss           0x00000000        0x0 coreutils/lib.a(mkfifo.o)
 .note.GNU-stack
                0x00000000        0x0 coreutils/lib.a(mkfifo.o)
 .text          0x00000000        0x0 coreutils/lib.a(mknod.o)
 .data          0x00000000        0x0 coreutils/lib.a(mknod.o)
 .bss           0x00000000        0x0 coreutils/lib.a(mknod.o)
 .note.GNU-stack
                0x00000000        0x0 coreutils/lib.a(mknod.o)
 .text          0x00000000        0x0 coreutils/lib.a(mv.o)
 .data          0x00000000        0x0 coreutils/lib.a(mv.o)
 .bss           0x00000000        0x0 coreutils/lib.a(mv.o)
 .note.GNU-stack
                0x00000000        0x0 coreutils/lib.a(mv.o)
 .text          0x00000000        0x0 coreutils/lib.a(nice.o)
 .data          0x00000000        0x0 coreutils/lib.a(nice.o)
 .bss           0x00000000        0x0 coreutils/lib.a(nice.o)
 .note.GNU-stack
                0x00000000        0x0 coreutils/lib.a(nice.o)
 .text          0x00000000        0x0 coreutils/lib.a(printenv.o)
 .data          0x00000000        0x0 coreutils/lib.a(printenv.o)
 .bss           0x00000000        0x0 coreutils/lib.a(printenv.o)
 .note.GNU-stack
                0x00000000        0x0 coreutils/lib.a(printenv.o)
 .text          0x00000000        0x0 coreutils/lib.a(printf.o)
 .data          0x00000000        0x0 coreutils/lib.a(printf.o)
 .bss           0x00000000        0x0 coreutils/lib.a(printf.o)
 .note.GNU-stack
                0x00000000        0x0 coreutils/lib.a(printf.o)
 .text          0x00000000        0x0 coreutils/lib.a(pwd.o)
 .data          0x00000000        0x0 coreutils/lib.a(pwd.o)
 .bss           0x00000000        0x0 coreutils/lib.a(pwd.o)
 .note.GNU-stack
                0x00000000        0x0 coreutils/lib.a(pwd.o)
 .text          0x00000000        0x0 coreutils/lib.a(rm.o)
 .data          0x00000000        0x0 coreutils/lib.a(rm.o)
 .bss           0x00000000        0x0 coreutils/lib.a(rm.o)
 .note.GNU-stack
                0x00000000        0x0 coreutils/lib.a(rm.o)
 .text          0x00000000        0x0 coreutils/lib.a(rmdir.o)
 .data          0x00000000        0x0 coreutils/lib.a(rmdir.o)
 .bss           0x00000000        0x0 coreutils/lib.a(rmdir.o)
 .note.GNU-stack
                0x00000000        0x0 coreutils/lib.a(rmdir.o)
 .text          0x00000000        0x0 coreutils/lib.a(sleep.o)
 .data          0x00000000        0x0 coreutils/lib.a(sleep.o)
 .bss           0x00000000        0x0 coreutils/lib.a(sleep.o)
 .note.GNU-stack
                0x00000000        0x0 coreutils/lib.a(sleep.o)
 .text          0x00000000        0x0 coreutils/lib.a(tail.o)
 .data          0x00000000        0x0 coreutils/lib.a(tail.o)
 .bss           0x00000000        0x0 coreutils/lib.a(tail.o)
 .note.GNU-stack
                0x00000000        0x0 coreutils/lib.a(tail.o)
 .text          0x00000000        0x0 coreutils/lib.a(test.o)
 .data          0x00000000        0x0 coreutils/lib.a(test.o)
 .bss           0x00000000        0x0 coreutils/lib.a(test.o)
 .note.GNU-stack
                0x00000000        0x0 coreutils/lib.a(test.o)
 .text          0x00000000        0x0 coreutils/lib.a(touch.o)
 .data          0x00000000        0x0 coreutils/lib.a(touch.o)
 .bss           0x00000000        0x0 coreutils/lib.a(touch.o)
 .note.GNU-stack
                0x00000000        0x0 coreutils/lib.a(touch.o)
 .text          0x00000000        0x0 coreutils/lib.a(tr.o)
 .data          0x00000000        0x0 coreutils/lib.a(tr.o)
 .bss           0x00000000        0x0 coreutils/lib.a(tr.o)
 .note.GNU-stack
                0x00000000        0x0 coreutils/lib.a(tr.o)
 .text          0x00000000        0x0 coreutils/lib.a(true.o)
 .data          0x00000000        0x0 coreutils/lib.a(true.o)
 .bss           0x00000000        0x0 coreutils/lib.a(true.o)
 .note.GNU-stack
                0x00000000        0x0 coreutils/lib.a(true.o)
 .text          0x00000000        0x0 coreutils/lib.a(uname.o)
 .data          0x00000000        0x0 coreutils/lib.a(uname.o)
 .bss           0x00000000        0x0 coreutils/lib.a(uname.o)
 .note.GNU-stack
                0x00000000        0x0 coreutils/lib.a(uname.o)
 .text          0x00000000        0x0 coreutils/lib.a(usleep.o)
 .data          0x00000000        0x0 coreutils/lib.a(usleep.o)
 .bss           0x00000000        0x0 coreutils/lib.a(usleep.o)
 .note.GNU-stack
                0x00000000        0x0 coreutils/lib.a(usleep.o)
 .text          0x00000000        0x0 coreutils/lib.a(wc.o)
 .data          0x00000000        0x0 coreutils/lib.a(wc.o)
 .bss           0x00000000        0x0 coreutils/lib.a(wc.o)
 .note.GNU-stack
                0x00000000        0x0 coreutils/lib.a(wc.o)
 .text          0x00000000        0x0 coreutils/lib.a(yes.o)
 .data          0x00000000        0x0 coreutils/lib.a(yes.o)
 .bss           0x00000000        0x0 coreutils/lib.a(yes.o)
 .note.GNU-stack
                0x00000000        0x0 coreutils/lib.a(yes.o)
 .text          0x00000000        0x0 coreutils/libcoreutils/lib.a(cp_mv_stat.o)
 .data          0x00000000        0x0 coreutils/libcoreutils/lib.a(cp_mv_stat.o)
 .bss           0x00000000        0x0 coreutils/libcoreutils/lib.a(cp_mv_stat.o)
 .note.GNU-stack
                0x00000000        0x0 coreutils/libcoreutils/lib.a(cp_mv_stat.o)
 .text          0x00000000        0x0 coreutils/libcoreutils/lib.a(getopt_mk_fifo_nod.o)
 .data          0x00000000        0x0 coreutils/libcoreutils/lib.a(getopt_mk_fifo_nod.o)
 .bss           0x00000000        0x0 coreutils/libcoreutils/lib.a(getopt_mk_fifo_nod.o)
 .note.GNU-stack
                0x00000000        0x0 coreutils/libcoreutils/lib.a(getopt_mk_fifo_nod.o)
 .text          0x00000000        0x0 editors/lib.a(awk.o)
 .data          0x00000000        0x0 editors/lib.a(awk.o)
 .bss           0x00000000        0x0 editors/lib.a(awk.o)
 .note.GNU-stack
                0x00000000        0x0 editors/lib.a(awk.o)
 .text          0x00000000        0x0 editors/lib.a(sed.o)
 .data          0x00000000        0x0 editors/lib.a(sed.o)
 .bss           0x00000000        0x0 editors/lib.a(sed.o)
 .note.GNU-stack
                0x00000000        0x0 editors/lib.a(sed.o)
 .text          0x00000000        0x0 editors/lib.a(vi.o)
 .data          0x00000000        0x0 editors/lib.a(vi.o)
 .bss           0x00000000        0x0 editors/lib.a(vi.o)
 .note.GNU-stack
                0x00000000        0x0 editors/lib.a(vi.o)
 .text          0x00000000        0x0 findutils/lib.a(find.o)
 .data          0x00000000        0x0 findutils/lib.a(find.o)
 .bss           0x00000000        0x0 findutils/lib.a(find.o)
 .note.GNU-stack
                0x00000000        0x0 findutils/lib.a(find.o)
 .text          0x00000000        0x0 findutils/lib.a(grep.o)
 .data          0x00000000        0x0 findutils/lib.a(grep.o)
 .bss           0x00000000        0x0 findutils/lib.a(grep.o)
 .note.GNU-stack
                0x00000000        0x0 findutils/lib.a(grep.o)
 .text          0x00000000        0x0 findutils/lib.a(xargs.o)
 .data          0x00000000        0x0 findutils/lib.a(xargs.o)
 .bss           0x00000000        0x0 findutils/lib.a(xargs.o)
 .note.GNU-stack
                0x00000000        0x0 findutils/lib.a(xargs.o)
 .text          0x00000000        0x0 init/lib.a(halt.o)
 .data          0x00000000        0x0 init/lib.a(halt.o)
 .bss           0x00000000        0x0 init/lib.a(halt.o)
 .note.GNU-stack
                0x00000000        0x0 init/lib.a(halt.o)
 .text          0x00000000        0x0 libbb/lib.a(ask_confirmation.o)
 .data          0x00000000        0x0 libbb/lib.a(ask_confirmation.o)
 .bss           0x00000000        0x0 libbb/lib.a(ask_confirmation.o)
 .note.GNU-stack
                0x00000000        0x0 libbb/lib.a(ask_confirmation.o)
 .text          0x00000000        0x0 libbb/lib.a(bb_basename.o)
 .data          0x00000000        0x0 libbb/lib.a(bb_basename.o)
 .bss           0x00000000        0x0 libbb/lib.a(bb_basename.o)
 .note.GNU-stack
                0x00000000        0x0 libbb/lib.a(bb_basename.o)
 .text          0x00000000        0x0 libbb/lib.a(bb_pwd.o)
 .data          0x00000000        0x0 libbb/lib.a(bb_pwd.o)
 .bss           0x00000000        0x0 libbb/lib.a(bb_pwd.o)
 .text.get_ug_id
                0x00000000       0x3c libbb/lib.a(bb_pwd.o)
 .note.GNU-stack
                0x00000000        0x0 libbb/lib.a(bb_pwd.o)
 .text          0x00000000        0x0 libbb/lib.a(bb_strtonum.o)
 .data          0x00000000        0x0 libbb/lib.a(bb_strtonum.o)
 .bss           0x00000000        0x0 libbb/lib.a(bb_strtonum.o)
 .text.bb_strtoull
                0x00000000       0x5c libbb/lib.a(bb_strtonum.o)
 .text.bb_strtoll
                0x00000000       0x64 libbb/lib.a(bb_strtonum.o)
 .note.GNU-stack
                0x00000000        0x0 libbb/lib.a(bb_strtonum.o)
 .text          0x00000000        0x0 libbb/lib.a(compare_string_array.o)
 .data          0x00000000        0x0 libbb/lib.a(compare_string_array.o)
 .bss           0x00000000        0x0 libbb/lib.a(compare_string_array.o)
 .text.index_in_str_array
                0x00000000       0x40 libbb/lib.a(compare_string_array.o)
 .note.GNU-stack
                0x00000000        0x0 libbb/lib.a(compare_string_array.o)
 .text          0x00000000        0x0 libbb/lib.a(concat_path_file.o)
 .data          0x00000000        0x0 libbb/lib.a(concat_path_file.o)
 .bss           0x00000000        0x0 libbb/lib.a(concat_path_file.o)
 .note.GNU-stack
                0x00000000        0x0 libbb/lib.a(concat_path_file.o)
 .text          0x00000000        0x0 libbb/lib.a(concat_subpath_file.o)
 .data          0x00000000        0x0 libbb/lib.a(concat_subpath_file.o)
 .bss           0x00000000        0x0 libbb/lib.a(concat_subpath_file.o)
 .note.GNU-stack
                0x00000000        0x0 libbb/lib.a(concat_subpath_file.o)
 .text          0x00000000        0x0 libbb/lib.a(copy_file.o)
 .data          0x00000000        0x0 libbb/lib.a(copy_file.o)
 .bss           0x00000000        0x0 libbb/lib.a(copy_file.o)
 .note.GNU-stack
                0x00000000        0x0 libbb/lib.a(copy_file.o)
 .text          0x00000000        0x0 libbb/lib.a(copyfd.o)
 .data          0x00000000        0x0 libbb/lib.a(copyfd.o)
 .bss           0x00000000        0x0 libbb/lib.a(copyfd.o)
 .note.GNU-stack
                0x00000000        0x0 libbb/lib.a(copyfd.o)
 .text          0x00000000        0x0 libbb/lib.a(crc32.o)
 .data          0x00000000        0x0 libbb/lib.a(crc32.o)
 .bss           0x00000000        0x0 libbb/lib.a(crc32.o)
 .text.crc32_block_endian1
                0x00000000       0x24 libbb/lib.a(crc32.o)
 .text.crc32_block_endian0
                0x00000000       0x28 libbb/lib.a(crc32.o)
 .note.GNU-stack
                0x00000000        0x0 libbb/lib.a(crc32.o)
 COMMON         0x00000000        0x4 libbb/lib.a(crc32.o)
 .text          0x00000000        0x0 libbb/lib.a(default_error_retval.o)
 .data          0x00000000        0x0 libbb/lib.a(default_error_retval.o)
 .bss           0x00000000        0x0 libbb/lib.a(default_error_retval.o)
 .note.GNU-stack
                0x00000000        0x0 libbb/lib.a(default_error_retval.o)
 .text          0x00000000        0x0 libbb/lib.a(error_msg.o)
 .data          0x00000000        0x0 libbb/lib.a(error_msg.o)
 .bss           0x00000000        0x0 libbb/lib.a(error_msg.o)
 .note.GNU-stack
                0x00000000        0x0 libbb/lib.a(error_msg.o)
 .text          0x00000000        0x0 libbb/lib.a(error_msg_and_die.o)
 .data          0x00000000        0x0 libbb/lib.a(error_msg_and_die.o)
 .bss           0x00000000        0x0 libbb/lib.a(error_msg_and_die.o)
 .note.GNU-stack
                0x00000000        0x0 libbb/lib.a(error_msg_and_die.o)
 .text          0x00000000        0x0 libbb/lib.a(fclose_nonstdin.o)
 .data          0x00000000        0x0 libbb/lib.a(fclose_nonstdin.o)
 .bss           0x00000000        0x0 libbb/lib.a(fclose_nonstdin.o)
 .note.GNU-stack
                0x00000000        0x0 libbb/lib.a(fclose_nonstdin.o)
 .text          0x00000000        0x0 libbb/lib.a(fflush_stdout_and_exit.o)
 .data          0x00000000        0x0 libbb/lib.a(fflush_stdout_and_exit.o)
 .bss           0x00000000        0x0 libbb/lib.a(fflush_stdout_and_exit.o)
 .note.GNU-stack
                0x00000000        0x0 libbb/lib.a(fflush_stdout_and_exit.o)
 .text          0x00000000        0x0 libbb/lib.a(find_mount_point.o)
 .data          0x00000000        0x0 libbb/lib.a(find_mount_point.o)
 .bss           0x00000000        0x0 libbb/lib.a(find_mount_point.o)
 .note.GNU-stack
                0x00000000        0x0 libbb/lib.a(find_mount_point.o)
 .text          0x00000000        0x0 libbb/lib.a(find_root_device.o)
 .data          0x00000000        0x0 libbb/lib.a(find_root_device.o)
 .bss           0x00000000        0x0 libbb/lib.a(find_root_device.o)
 .note.GNU-stack
                0x00000000        0x0 libbb/lib.a(find_root_device.o)
 .text          0x00000000        0x0 libbb/lib.a(full_write.o)
 .data          0x00000000        0x0 libbb/lib.a(full_write.o)
 .bss           0x00000000        0x0 libbb/lib.a(full_write.o)
 .note.GNU-stack
                0x00000000        0x0 libbb/lib.a(full_write.o)
 .text          0x00000000        0x0 libbb/lib.a(get_last_path_component.o)
 .data          0x00000000        0x0 libbb/lib.a(get_last_path_component.o)
 .bss           0x00000000        0x0 libbb/lib.a(get_last_path_component.o)
 .note.GNU-stack
                0x00000000        0x0 libbb/lib.a(get_last_path_component.o)
 .text          0x00000000        0x0 libbb/lib.a(get_line_from_file.o)
 .data          0x00000000        0x0 libbb/lib.a(get_line_from_file.o)
 .bss           0x00000000        0x0 libbb/lib.a(get_line_from_file.o)
 .note.GNU-stack
                0x00000000        0x0 libbb/lib.a(get_line_from_file.o)
 .text          0x00000000        0x0 libbb/lib.a(getopt32.o)
 .data          0x00000000        0x0 libbb/lib.a(getopt32.o)
 .bss           0x00000000        0x0 libbb/lib.a(getopt32.o)
 .note.GNU-stack
                0x00000000        0x0 libbb/lib.a(getopt32.o)
 .text          0x00000000        0x0 libbb/lib.a(human_readable.o)
 .data          0x00000000        0x0 libbb/lib.a(human_readable.o)
 .bss           0x00000000        0x0 libbb/lib.a(human_readable.o)
 .note.GNU-stack
                0x00000000        0x0 libbb/lib.a(human_readable.o)
 .text          0x00000000        0x0 libbb/lib.a(inode_hash.o)
 .data          0x00000000        0x0 libbb/lib.a(inode_hash.o)
 .bss           0x00000000        0x0 libbb/lib.a(inode_hash.o)
 .note.GNU-stack
                0x00000000        0x0 libbb/lib.a(inode_hash.o)
 .text          0x00000000        0x0 libbb/lib.a(isdirectory.o)
 .data          0x00000000        0x0 libbb/lib.a(isdirectory.o)
 .bss           0x00000000        0x0 libbb/lib.a(isdirectory.o)
 .note.GNU-stack
                0x00000000        0x0 libbb/lib.a(isdirectory.o)
 .text          0x00000000        0x0 libbb/lib.a(last_char_is.o)
 .data          0x00000000        0x0 libbb/lib.a(last_char_is.o)
 .bss           0x00000000        0x0 libbb/lib.a(last_char_is.o)
 .note.GNU-stack
                0x00000000        0x0 libbb/lib.a(last_char_is.o)
 .text          0x00000000        0x0 libbb/lib.a(llist.o)
 .data          0x00000000        0x0 libbb/lib.a(llist.o)
 .bss           0x00000000        0x0 libbb/lib.a(llist.o)
 .text.llist_unlink
                0x00000000       0x50 libbb/lib.a(llist.o)
 .text.llist_free
                0x00000000       0x38 libbb/lib.a(llist.o)
 .note.GNU-stack
                0x00000000        0x0 libbb/lib.a(llist.o)
 .text          0x00000000        0x0 libbb/lib.a(make_directory.o)
 .data          0x00000000        0x0 libbb/lib.a(make_directory.o)
 .bss           0x00000000        0x0 libbb/lib.a(make_directory.o)
 .note.GNU-stack
                0x00000000        0x0 libbb/lib.a(make_directory.o)
 .text          0x00000000        0x0 libbb/lib.a(makedev.o)
 .data          0x00000000        0x0 libbb/lib.a(makedev.o)
 .bss           0x00000000        0x0 libbb/lib.a(makedev.o)
 .note.GNU-stack
                0x00000000        0x0 libbb/lib.a(makedev.o)
 .text          0x00000000        0x0 libbb/lib.a(md5.o)
 .data          0x00000000        0x0 libbb/lib.a(md5.o)
 .bss           0x00000000        0x0 libbb/lib.a(md5.o)
 .note.GNU-stack
                0x00000000        0x0 libbb/lib.a(md5.o)
 .text          0x00000000        0x0 libbb/lib.a(messages.o)
 .bss           0x00000000        0x0 libbb/lib.a(messages.o)
 .rodata.bb_msg_unknown
                0x00000000        0xc libbb/lib.a(messages.o)
 .rodata.bb_path_motd_file
                0x00000000        0xc libbb/lib.a(messages.o)
 .rodata.bb_path_wtmp_file
                0x00000000       0x10 libbb/lib.a(messages.o)
 .rodata.bb_busybox_exec_path
                0x00000000       0x10 libbb/lib.a(messages.o)
 .note.GNU-stack
                0x00000000        0x0 libbb/lib.a(messages.o)
 .text          0x00000000        0x0 libbb/lib.a(mode_string.o)
 .data          0x00000000        0x0 libbb/lib.a(mode_string.o)
 .bss           0x00000000        0x0 libbb/lib.a(mode_string.o)
 .note.GNU-stack
                0x00000000        0x0 libbb/lib.a(mode_string.o)
 .text          0x00000000        0x0 libbb/lib.a(mtab_file.o)
 .data          0x00000000        0x0 libbb/lib.a(mtab_file.o)
 .bss           0x00000000        0x0 libbb/lib.a(mtab_file.o)
 .note.GNU-stack
                0x00000000        0x0 libbb/lib.a(mtab_file.o)
 .text          0x00000000        0x0 libbb/lib.a(parse_mode.o)
 .data          0x00000000        0x0 libbb/lib.a(parse_mode.o)
 .bss           0x00000000        0x0 libbb/lib.a(parse_mode.o)
 .note.GNU-stack
                0x00000000        0x0 libbb/lib.a(parse_mode.o)
 .text          0x00000000        0x0 libbb/lib.a(perror_msg.o)
 .data          0x00000000        0x0 libbb/lib.a(perror_msg.o)
 .bss           0x00000000        0x0 libbb/lib.a(perror_msg.o)
 .note.GNU-stack
                0x00000000        0x0 libbb/lib.a(perror_msg.o)
 .text          0x00000000        0x0 libbb/lib.a(perror_msg_and_die.o)
 .data          0x00000000        0x0 libbb/lib.a(perror_msg_and_die.o)
 .bss           0x00000000        0x0 libbb/lib.a(perror_msg_and_die.o)
 .note.GNU-stack
                0x00000000        0x0 libbb/lib.a(perror_msg_and_die.o)
 .text          0x00000000        0x0 libbb/lib.a(perror_nomsg_and_die.o)
 .data          0x00000000        0x0 libbb/lib.a(perror_nomsg_and_die.o)
 .bss           0x00000000        0x0 libbb/lib.a(perror_nomsg_and_die.o)
 .note.GNU-stack
                0x00000000        0x0 libbb/lib.a(perror_nomsg_and_die.o)
 .text          0x00000000        0x0 libbb/lib.a(process_escape_sequence.o)
 .data          0x00000000        0x0 libbb/lib.a(process_escape_sequence.o)
 .bss           0x00000000        0x0 libbb/lib.a(process_escape_sequence.o)
 .note.GNU-stack
                0x00000000        0x0 libbb/lib.a(process_escape_sequence.o)
 .text          0x00000000        0x0 libbb/lib.a(procps.o)
 .data          0x00000000        0x0 libbb/lib.a(procps.o)
 .bss           0x00000000        0x0 libbb/lib.a(procps.o)
 .note.GNU-stack
                0x00000000        0x0 libbb/lib.a(procps.o)
 .text          0x00000000        0x0 libbb/lib.a(read.o)
 .data          0x00000000        0x0 libbb/lib.a(read.o)
 .bss           0x00000000        0x0 libbb/lib.a(read.o)
 .text.reads    0x00000000       0x90 libbb/lib.a(read.o)
 .text.xmalloc_reads
                0x00000000       0xa4 libbb/lib.a(read.o)
 .note.GNU-stack
                0x00000000        0x0 libbb/lib.a(read.o)
 .text          0x00000000        0x0 libbb/lib.a(recursive_action.o)
 .data          0x00000000        0x0 libbb/lib.a(recursive_action.o)
 .bss           0x00000000        0x0 libbb/lib.a(recursive_action.o)
 .note.GNU-stack
                0x00000000        0x0 libbb/lib.a(recursive_action.o)
 .text          0x00000000        0x0 libbb/lib.a(remove_file.o)
 .data          0x00000000        0x0 libbb/lib.a(remove_file.o)
 .bss           0x00000000        0x0 libbb/lib.a(remove_file.o)
 .note.GNU-stack
                0x00000000        0x0 libbb/lib.a(remove_file.o)
 .text          0x00000000        0x0 libbb/lib.a(safe_strncpy.o)
 .data          0x00000000        0x0 libbb/lib.a(safe_strncpy.o)
 .bss           0x00000000        0x0 libbb/lib.a(safe_strncpy.o)
 .note.GNU-stack
                0x00000000        0x0 libbb/lib.a(safe_strncpy.o)
 .text          0x00000000        0x0 libbb/lib.a(safe_write.o)
 .data          0x00000000        0x0 libbb/lib.a(safe_write.o)
 .bss           0x00000000        0x0 libbb/lib.a(safe_write.o)
 .note.GNU-stack
                0x00000000        0x0 libbb/lib.a(safe_write.o)
 .text          0x00000000        0x0 libbb/lib.a(skip_whitespace.o)
 .data          0x00000000        0x0 libbb/lib.a(skip_whitespace.o)
 .bss           0x00000000        0x0 libbb/lib.a(skip_whitespace.o)
 .text.skip_non_whitespace
                0x00000000       0x2c libbb/lib.a(skip_whitespace.o)
 .note.GNU-stack
                0x00000000        0x0 libbb/lib.a(skip_whitespace.o)
 .text          0x00000000        0x0 libbb/lib.a(verror_msg.o)
 .data          0x00000000        0x0 libbb/lib.a(verror_msg.o)
 .bss           0x00000000        0x0 libbb/lib.a(verror_msg.o)
 .note.GNU-stack
                0x00000000        0x0 libbb/lib.a(verror_msg.o)
 .text          0x00000000        0x0 libbb/lib.a(vfork_daemon_rexec.o)
 .data          0x00000000        0x0 libbb/lib.a(vfork_daemon_rexec.o)
 .bss           0x00000000        0x0 libbb/lib.a(vfork_daemon_rexec.o)
 .text.xspawn   0x00000000       0x24 libbb/lib.a(vfork_daemon_rexec.o)
 .text.wait_nohang
                0x00000000       0x10 libbb/lib.a(vfork_daemon_rexec.o)
 .text.wait_pid
                0x00000000       0x40 libbb/lib.a(vfork_daemon_rexec.o)
 .text.bb_sanitize_stdio
                0x00000000        0x8 libbb/lib.a(vfork_daemon_rexec.o)
 .note.GNU-stack
                0x00000000        0x0 libbb/lib.a(vfork_daemon_rexec.o)
 .text          0x00000000        0x0 libbb/lib.a(wfopen.o)
 .data          0x00000000        0x0 libbb/lib.a(wfopen.o)
 .bss           0x00000000        0x0 libbb/lib.a(wfopen.o)
 .note.GNU-stack
                0x00000000        0x0 libbb/lib.a(wfopen.o)
 .text          0x00000000        0x0 libbb/lib.a(wfopen_input.o)
 .data          0x00000000        0x0 libbb/lib.a(wfopen_input.o)
 .bss           0x00000000        0x0 libbb/lib.a(wfopen_input.o)
 .note.GNU-stack
                0x00000000        0x0 libbb/lib.a(wfopen_input.o)
 .text          0x00000000        0x0 libbb/lib.a(xatonum.o)
 .data          0x00000000        0x0 libbb/lib.a(xatonum.o)
 .bss           0x00000000        0x0 libbb/lib.a(xatonum.o)
 .text.xstrtoull_range
                0x00000000       0x24 libbb/lib.a(xatonum.o)
 .text.xstrtoull_sfx
                0x00000000       0x2c libbb/lib.a(xatonum.o)
 .text.xstrtoull
                0x00000000       0x2c libbb/lib.a(xatonum.o)
 .text.xatoull_range_sfx
                0x00000000        0x8 libbb/lib.a(xatonum.o)
 .text.xatoull_range
                0x00000000       0x28 libbb/lib.a(xatonum.o)
 .text.xatoull  0x00000000        0x8 libbb/lib.a(xatonum.o)
 .text.xstrtoll_range_sfx
                0x00000000       0xdc libbb/lib.a(xatonum.o)
 .text.xstrtoll_range
                0x00000000       0x24 libbb/lib.a(xatonum.o)
 .text.xatoll_range_sfx
                0x00000000        0x8 libbb/lib.a(xatonum.o)
 .text.xatoll_range
                0x00000000       0x28 libbb/lib.a(xatonum.o)
 .text.xatoll_sfx
                0x00000000       0x2c libbb/lib.a(xatonum.o)
 .text.xatoll   0x00000000       0x30 libbb/lib.a(xatonum.o)
 .text.xstrtoul_range
                0x00000000       0x14 libbb/lib.a(xatonum.o)
 .text.xstrtoul_sfx
                0x00000000       0x18 libbb/lib.a(xatonum.o)
 .text.xstrtol_range
                0x00000000       0x14 libbb/lib.a(xatonum.o)
 .text.xatol_range_sfx
                0x00000000       0x24 libbb/lib.a(xatonum.o)
 .text.xatol_sfx
                0x00000000       0x1c libbb/lib.a(xatonum.o)
 .text.xatol    0x00000000       0x20 libbb/lib.a(xatonum.o)
 .note.GNU-stack
                0x00000000        0x0 libbb/lib.a(xatonum.o)
 .text          0x00000000        0x0 libbb/lib.a(xfuncs.o)
 .data          0x00000000        0x0 libbb/lib.a(xfuncs.o)
 .bss           0x00000000        0x0 libbb/lib.a(xfuncs.o)
 .text.xfflush_stdout
                0x00000000       0x28 libbb/lib.a(xfuncs.o)
 .text.sig_block
                0x00000000       0x34 libbb/lib.a(xfuncs.o)
 .text.sig_unblock
                0x00000000       0x34 libbb/lib.a(xfuncs.o)
 .text.sig_catch
                0x00000000       0x38 libbb/lib.a(xfuncs.o)
 .text.sig_pause
                0x00000000       0x1c libbb/lib.a(xfuncs.o)
 .text.smart_ulltoa5
                0x00000000      0x198 libbb/lib.a(xfuncs.o)
 .text.utoa     0x00000000       0x28 libbb/lib.a(xfuncs.o)
 .text.fdlength
                0x00000000      0x174 libbb/lib.a(xfuncs.o)
 .text.selinux_or_die
                0x00000000       0x10 libbb/lib.a(xfuncs.o)
 .text.ioctl_or_perror
                0x00000000       0x50 libbb/lib.a(xfuncs.o)
 .note.GNU-stack
                0x00000000        0x0 libbb/lib.a(xfuncs.o)
 .text          0x00000000        0x0 libbb/lib.a(xgetcwd.o)
 .data          0x00000000        0x0 libbb/lib.a(xgetcwd.o)
 .bss           0x00000000        0x0 libbb/lib.a(xgetcwd.o)
 .note.GNU-stack
                0x00000000        0x0 libbb/lib.a(xgetcwd.o)
 .text          0x00000000        0x0 libbb/lib.a(xreadlink.o)
 .data          0x00000000        0x0 libbb/lib.a(xreadlink.o)
 .bss           0x00000000        0x0 libbb/lib.a(xreadlink.o)
 .note.GNU-stack
                0x00000000        0x0 libbb/lib.a(xreadlink.o)
 .text          0x00000000        0x0 libbb/lib.a(xregcomp.o)
 .data          0x00000000        0x0 libbb/lib.a(xregcomp.o)
 .bss           0x00000000        0x0 libbb/lib.a(xregcomp.o)
 .note.GNU-stack
                0x00000000        0x0 libbb/lib.a(xregcomp.o)
 .text          0x00000000        0x0 loginutils/lib.a(addgroup.o)
 .data          0x00000000        0x0 loginutils/lib.a(addgroup.o)
 .bss           0x00000000        0x0 loginutils/lib.a(addgroup.o)
 .note.GNU-stack
                0x00000000        0x0 loginutils/lib.a(addgroup.o)
 .text          0x00000000        0x0 loginutils/lib.a(adduser.o)
 .data          0x00000000        0x0 loginutils/lib.a(adduser.o)
 .bss           0x00000000        0x0 loginutils/lib.a(adduser.o)
 .note.GNU-stack
                0x00000000        0x0 loginutils/lib.a(adduser.o)
 .text          0x00000000        0x0 loginutils/lib.a(deluser.o)
 .data          0x00000000        0x0 loginutils/lib.a(deluser.o)
 .bss           0x00000000        0x0 loginutils/lib.a(deluser.o)
 .note.GNU-stack
                0x00000000        0x0 loginutils/lib.a(deluser.o)
 .text          0x00000000        0x0 loginutils/lib.a(passwd.o)
 .data          0x00000000        0x0 loginutils/lib.a(passwd.o)
 .bss           0x00000000        0x0 loginutils/lib.a(passwd.o)
 .note.GNU-stack
                0x00000000        0x0 loginutils/lib.a(passwd.o)
 .text          0x00000000        0x0 loginutils/lib.a(su.o)
 .data          0x00000000        0x0 loginutils/lib.a(su.o)
 .bss           0x00000000        0x0 loginutils/lib.a(su.o)
 .note.GNU-stack
                0x00000000        0x0 loginutils/lib.a(su.o)
 .text          0x00000000        0x0 miscutils/lib.a(crond.o)
 .data          0x00000000        0x0 miscutils/lib.a(crond.o)
 .bss           0x00000000        0x0 miscutils/lib.a(crond.o)
 .note.GNU-stack
                0x00000000        0x0 miscutils/lib.a(crond.o)
 .text          0x00000000        0x0 miscutils/lib.a(crontab.o)
 .data          0x00000000        0x0 miscutils/lib.a(crontab.o)
 .bss           0x00000000        0x0 miscutils/lib.a(crontab.o)
 .note.GNU-stack
                0x00000000        0x0 miscutils/lib.a(crontab.o)
 .text          0x00000000        0x0 miscutils/lib.a(less.o)
 .data          0x00000000        0x0 miscutils/lib.a(less.o)
 .bss           0x00000000        0x0 miscutils/lib.a(less.o)
 .note.GNU-stack
                0x00000000        0x0 miscutils/lib.a(less.o)
 .text          0x00000000        0x0 modutils/lib.a(insmod.o)
 .data          0x00000000        0x0 modutils/lib.a(insmod.o)
 .bss           0x00000000        0x0 modutils/lib.a(insmod.o)
 .note.GNU-stack
                0x00000000        0x0 modutils/lib.a(insmod.o)
 .text          0x00000000        0x0 modutils/lib.a(lsmod.o)
 .data          0x00000000        0x0 modutils/lib.a(lsmod.o)
 .bss           0x00000000        0x0 modutils/lib.a(lsmod.o)
 .note.GNU-stack
                0x00000000        0x0 modutils/lib.a(lsmod.o)
 .text          0x00000000        0x0 modutils/lib.a(rmmod.o)
 .data          0x00000000        0x0 modutils/lib.a(rmmod.o)
 .bss           0x00000000        0x0 modutils/lib.a(rmmod.o)
 .note.GNU-stack
                0x00000000        0x0 modutils/lib.a(rmmod.o)
 .text          0x00000000        0x0 networking/lib.a(arp.o)
 .data          0x00000000        0x0 networking/lib.a(arp.o)
 .bss           0x00000000        0x0 networking/lib.a(arp.o)
 .note.GNU-stack
                0x00000000        0x0 networking/lib.a(arp.o)
 .text          0x00000000        0x0 networking/lib.a(hostname.o)
 .data          0x00000000        0x0 networking/lib.a(hostname.o)
 .bss           0x00000000        0x0 networking/lib.a(hostname.o)
 .note.GNU-stack
                0x00000000        0x0 networking/lib.a(hostname.o)
 .text          0x00000000        0x0 networking/lib.a(ifconfig.o)
 .data          0x00000000        0x0 networking/lib.a(ifconfig.o)
 .bss           0x00000000        0x0 networking/lib.a(ifconfig.o)
 .note.GNU-stack
                0x00000000        0x0 networking/lib.a(ifconfig.o)
 .text          0x00000000        0x0 networking/lib.a(interface.o)
 .data          0x00000000        0x0 networking/lib.a(interface.o)
 .bss           0x00000000        0x0 networking/lib.a(interface.o)
 .note.GNU-stack
                0x00000000        0x0 networking/lib.a(interface.o)
 .text          0x00000000        0x0 networking/lib.a(ip.o)
 .data          0x00000000        0x0 networking/lib.a(ip.o)
 .bss           0x00000000        0x0 networking/lib.a(ip.o)
 .note.GNU-stack
                0x00000000        0x0 networking/lib.a(ip.o)
 .text          0x00000000        0x0 networking/lib.a(netstat.o)
 .data          0x00000000        0x0 networking/lib.a(netstat.o)
 .bss           0x00000000        0x0 networking/lib.a(netstat.o)
 .note.GNU-stack
                0x00000000        0x0 networking/lib.a(netstat.o)
 .text          0x00000000        0x0 networking/lib.a(nslookup.o)
 .data          0x00000000        0x0 networking/lib.a(nslookup.o)
 .bss           0x00000000        0x0 networking/lib.a(nslookup.o)
 .note.GNU-stack
                0x00000000        0x0 networking/lib.a(nslookup.o)
 .text          0x00000000        0x0 networking/lib.a(ping.o)
 .data          0x00000000        0x0 networking/lib.a(ping.o)
 .bss           0x00000000        0x0 networking/lib.a(ping.o)
 .note.GNU-stack
                0x00000000        0x0 networking/lib.a(ping.o)
 .text          0x00000000        0x0 networking/lib.a(route.o)
 .data          0x00000000        0x0 networking/lib.a(route.o)
 .bss           0x00000000        0x0 networking/lib.a(route.o)
 .note.GNU-stack
                0x00000000        0x0 networking/lib.a(route.o)
 .text          0x00000000        0x0 networking/lib.a(telnet.o)
 .data          0x00000000        0x0 networking/lib.a(telnet.o)
 .bss           0x00000000        0x0 networking/lib.a(telnet.o)
 .note.GNU-stack
                0x00000000        0x0 networking/lib.a(telnet.o)
 .text          0x00000000        0x0 networking/lib.a(telnetd.o)
 .data          0x00000000        0x0 networking/lib.a(telnetd.o)
 .bss           0x00000000        0x0 networking/lib.a(telnetd.o)
 .note.GNU-stack
                0x00000000        0x0 networking/lib.a(telnetd.o)
 .text          0x00000000        0x0 networking/lib.a(tftp.o)
 .data          0x00000000        0x0 networking/lib.a(tftp.o)
 .bss           0x00000000        0x0 networking/lib.a(tftp.o)
 .note.GNU-stack
                0x00000000        0x0 networking/lib.a(tftp.o)
 .text          0x00000000        0x0 networking/libiproute/lib.a(ip_parse_common_args.o)
 .data          0x00000000        0x0 networking/libiproute/lib.a(ip_parse_common_args.o)
 .bss           0x00000000        0x0 networking/libiproute/lib.a(ip_parse_common_args.o)
 .note.GNU-stack
                0x00000000        0x0 networking/libiproute/lib.a(ip_parse_common_args.o)
 .text          0x00000000        0x0 networking/libiproute/lib.a(ipaddress.o)
 .data          0x00000000        0x0 networking/libiproute/lib.a(ipaddress.o)
 .bss           0x00000000        0x0 networking/libiproute/lib.a(ipaddress.o)
 .note.GNU-stack
                0x00000000        0x0 networking/libiproute/lib.a(ipaddress.o)
 .text          0x00000000        0x0 networking/libiproute/lib.a(iplink.o)
 .data          0x00000000        0x0 networking/libiproute/lib.a(iplink.o)
 .bss           0x00000000        0x0 networking/libiproute/lib.a(iplink.o)
 .note.GNU-stack
                0x00000000        0x0 networking/libiproute/lib.a(iplink.o)
 .text          0x00000000        0x0 networking/libiproute/lib.a(iproute.o)
 .data          0x00000000        0x0 networking/libiproute/lib.a(iproute.o)
 .bss           0x00000000        0x0 networking/libiproute/lib.a(iproute.o)
 .note.GNU-stack
                0x00000000        0x0 networking/libiproute/lib.a(iproute.o)
 .text          0x00000000        0x0 networking/libiproute/lib.a(iprule.o)
 .data          0x00000000        0x0 networking/libiproute/lib.a(iprule.o)
 .bss           0x00000000        0x0 networking/libiproute/lib.a(iprule.o)
 .note.GNU-stack
                0x00000000        0x0 networking/libiproute/lib.a(iprule.o)
 .text          0x00000000        0x0 networking/libiproute/lib.a(iptunnel.o)
 .data          0x00000000        0x0 networking/libiproute/lib.a(iptunnel.o)
 .bss           0x00000000        0x0 networking/libiproute/lib.a(iptunnel.o)
 .note.GNU-stack
                0x00000000        0x0 networking/libiproute/lib.a(iptunnel.o)
 .text          0x00000000        0x0 networking/libiproute/lib.a(libnetlink.o)
 .data          0x00000000        0x0 networking/libiproute/lib.a(libnetlink.o)
 .bss           0x00000000        0x0 networking/libiproute/lib.a(libnetlink.o)
 .text.rtnl_close
                0x00000000        0x8 networking/libiproute/lib.a(libnetlink.o)
 .text.rtnl_dump_request
                0x00000000       0xac networking/libiproute/lib.a(libnetlink.o)
 .text.rta_addattr_l
                0x00000000       0x6c networking/libiproute/lib.a(libnetlink.o)
 .note.GNU-stack
                0x00000000        0x0 networking/libiproute/lib.a(libnetlink.o)
 .text          0x00000000        0x0 networking/libiproute/lib.a(ll_addr.o)
 .data          0x00000000        0x0 networking/libiproute/lib.a(ll_addr.o)
 .bss           0x00000000        0x0 networking/libiproute/lib.a(ll_addr.o)
 .note.GNU-stack
                0x00000000        0x0 networking/libiproute/lib.a(ll_addr.o)
 .text          0x00000000        0x0 networking/libiproute/lib.a(ll_map.o)
 .data          0x00000000        0x0 networking/libiproute/lib.a(ll_map.o)
 .bss           0x00000000        0x0 networking/libiproute/lib.a(ll_map.o)
 .note.GNU-stack
                0x00000000        0x0 networking/libiproute/lib.a(ll_map.o)
 .text          0x00000000        0x0 networking/libiproute/lib.a(ll_types.o)
 .data          0x00000000        0x0 networking/libiproute/lib.a(ll_types.o)
 .bss           0x00000000        0x0 networking/libiproute/lib.a(ll_types.o)
 .note.GNU-stack
                0x00000000        0x0 networking/libiproute/lib.a(ll_types.o)
 .text          0x00000000        0x0 networking/libiproute/lib.a(rt_names.o)
 .data          0x00000000        0x0 networking/libiproute/lib.a(rt_names.o)
 .bss           0x00000000        0x0 networking/libiproute/lib.a(rt_names.o)
 .text.rtnl_rtprot_n2a
                0x00000000       0x70 networking/libiproute/lib.a(rt_names.o)
 .note.GNU-stack
                0x00000000        0x0 networking/libiproute/lib.a(rt_names.o)
 .text          0x00000000        0x0 networking/libiproute/lib.a(rtm_map.o)
 .data          0x00000000        0x0 networking/libiproute/lib.a(rtm_map.o)
 .bss           0x00000000        0x0 networking/libiproute/lib.a(rtm_map.o)
 .note.GNU-stack
                0x00000000        0x0 networking/libiproute/lib.a(rtm_map.o)
 .text          0x00000000        0x0 networking/libiproute/lib.a(utils.o)
 .data          0x00000000        0x0 networking/libiproute/lib.a(utils.o)
 .bss           0x00000000        0x0 networking/libiproute/lib.a(utils.o)
 .text.get_u16  0x00000000       0x68 networking/libiproute/lib.a(utils.o)
 .text.get_u8   0x00000000       0x64 networking/libiproute/lib.a(utils.o)
 .text.get_s16  0x00000000       0x70 networking/libiproute/lib.a(utils.o)
 .text.get_s8   0x00000000       0x6c networking/libiproute/lib.a(utils.o)
 .note.GNU-stack
                0x00000000        0x0 networking/libiproute/lib.a(utils.o)
 .text          0x00000000        0x0 procps/lib.a(free.o)
 .data          0x00000000        0x0 procps/lib.a(free.o)
 .bss           0x00000000        0x0 procps/lib.a(free.o)
 .note.GNU-stack
                0x00000000        0x0 procps/lib.a(free.o)
 .text          0x00000000        0x0 procps/lib.a(kill.o)
 .data          0x00000000        0x0 procps/lib.a(kill.o)
 .bss           0x00000000        0x0 procps/lib.a(kill.o)
 .note.GNU-stack
                0x00000000        0x0 procps/lib.a(kill.o)
 .text          0x00000000        0x0 procps/lib.a(pidof.o)
 .data          0x00000000        0x0 procps/lib.a(pidof.o)
 .bss           0x00000000        0x0 procps/lib.a(pidof.o)
 .note.GNU-stack
                0x00000000        0x0 procps/lib.a(pidof.o)
 .text          0x00000000        0x0 procps/lib.a(ps.o)
 .data          0x00000000        0x0 procps/lib.a(ps.o)
 .bss           0x00000000        0x0 procps/lib.a(ps.o)
 .note.GNU-stack
                0x00000000        0x0 procps/lib.a(ps.o)
 .text          0x00000000        0x0 procps/lib.a(sysctl.o)
 .data          0x00000000        0x0 procps/lib.a(sysctl.o)
 .bss           0x00000000        0x0 procps/lib.a(sysctl.o)
 .note.GNU-stack
                0x00000000        0x0 procps/lib.a(sysctl.o)
 .text          0x00000000        0x0 procps/lib.a(top.o)
 .data          0x00000000        0x0 procps/lib.a(top.o)
 .bss           0x00000000        0x0 procps/lib.a(top.o)
 .note.GNU-stack
                0x00000000        0x0 procps/lib.a(top.o)
 .text          0x00000000        0x0 procps/lib.a(uptime.o)
 .data          0x00000000        0x0 procps/lib.a(uptime.o)
 .bss           0x00000000        0x0 procps/lib.a(uptime.o)
 .note.GNU-stack
                0x00000000        0x0 procps/lib.a(uptime.o)
 .text          0x00000000        0x0 shell/lib.a(ash.o)
 .data          0x00000000        0x0 shell/lib.a(ash.o)
 .bss           0x00000000        0x0 shell/lib.a(ash.o)
 .note.GNU-stack
                0x00000000        0x0 shell/lib.a(ash.o)
 .text          0x00000000        0x0 sysklogd/lib.a(klogd.o)
 .data          0x00000000        0x0 sysklogd/lib.a(klogd.o)
 .bss           0x00000000        0x0 sysklogd/lib.a(klogd.o)
 .note.GNU-stack
                0x00000000        0x0 sysklogd/lib.a(klogd.o)
 .text          0x00000000        0x0 sysklogd/lib.a(logread.o)
 .data          0x00000000        0x0 sysklogd/lib.a(logread.o)
 .bss           0x00000000        0x0 sysklogd/lib.a(logread.o)
 .note.GNU-stack
                0x00000000        0x0 sysklogd/lib.a(logread.o)
 .text          0x00000000        0x0 sysklogd/lib.a(syslogd.o)
 .data          0x00000000        0x0 sysklogd/lib.a(syslogd.o)
 .bss           0x00000000        0x0 sysklogd/lib.a(syslogd.o)
 .note.GNU-stack
                0x00000000        0x0 sysklogd/lib.a(syslogd.o)
 .text          0x00000000        0x0 util-linux/lib.a(dmesg.o)
 .data          0x00000000        0x0 util-linux/lib.a(dmesg.o)
 .bss           0x00000000        0x0 util-linux/lib.a(dmesg.o)
 .note.GNU-stack
                0x00000000        0x0 util-linux/lib.a(dmesg.o)
 .text          0x00000000        0x0 util-linux/lib.a(more.o)
 .data          0x00000000        0x0 util-linux/lib.a(more.o)
 .bss           0x00000000        0x0 util-linux/lib.a(more.o)
 .note.GNU-stack
                0x00000000        0x0 util-linux/lib.a(more.o)
 .text          0x00000000        0x0 util-linux/lib.a(mount.o)
 .data          0x00000000        0x0 util-linux/lib.a(mount.o)
 .bss           0x00000000        0x0 util-linux/lib.a(mount.o)
 .note.GNU-stack
                0x00000000        0x0 util-linux/lib.a(mount.o)
 .text          0x00000000        0x0 util-linux/lib.a(pivot_root.o)
 .data          0x00000000        0x0 util-linux/lib.a(pivot_root.o)
 .bss           0x00000000        0x0 util-linux/lib.a(pivot_root.o)
 .note.GNU-stack
                0x00000000        0x0 util-linux/lib.a(pivot_root.o)
 .text          0x00000000        0x0 util-linux/lib.a(rdate.o)
 .data          0x00000000        0x0 util-linux/lib.a(rdate.o)
 .bss           0x00000000        0x0 util-linux/lib.a(rdate.o)
 .note.GNU-stack
                0x00000000        0x0 util-linux/lib.a(rdate.o)
 .text          0x00000000        0x0 util-linux/lib.a(umount.o)
 .data          0x00000000        0x0 util-linux/lib.a(umount.o)
 .bss           0x00000000        0x0 util-linux/lib.a(umount.o)
 .note.GNU-stack
                0x00000000        0x0 util-linux/lib.a(umount.o)
 .text          0x00000000        0x0 libbb/lib.a(bb_askpass.o)
 .data          0x00000000        0x0 libbb/lib.a(bb_askpass.o)
 .bss           0x00000000        0x0 libbb/lib.a(bb_askpass.o)
 .note.GNU-stack
                0x00000000        0x0 libbb/lib.a(bb_askpass.o)
 .text          0x00000000        0x0 libbb/lib.a(bb_do_delay.o)
 .data          0x00000000        0x0 libbb/lib.a(bb_do_delay.o)
 .bss           0x00000000        0x0 libbb/lib.a(bb_do_delay.o)
 .note.GNU-stack
                0x00000000        0x0 libbb/lib.a(bb_do_delay.o)
 .text          0x00000000        0x0 libbb/lib.a(change_identity.o)
 .data          0x00000000        0x0 libbb/lib.a(change_identity.o)
 .bss           0x00000000        0x0 libbb/lib.a(change_identity.o)
 .note.GNU-stack
                0x00000000        0x0 libbb/lib.a(change_identity.o)
 .text          0x00000000        0x0 libbb/lib.a(chomp.o)
 .data          0x00000000        0x0 libbb/lib.a(chomp.o)
 .bss           0x00000000        0x0 libbb/lib.a(chomp.o)
 .note.GNU-stack
                0x00000000        0x0 libbb/lib.a(chomp.o)
 .text          0x00000000        0x0 libbb/lib.a(correct_password.o)
 .data          0x00000000        0x0 libbb/lib.a(correct_password.o)
 .bss           0x00000000        0x0 libbb/lib.a(correct_password.o)
 .note.GNU-stack
                0x00000000        0x0 libbb/lib.a(correct_password.o)
 .text          0x00000000        0x0 libbb/lib.a(create_icmp6_socket.o)
 .data          0x00000000        0x0 libbb/lib.a(create_icmp6_socket.o)
 .bss           0x00000000        0x0 libbb/lib.a(create_icmp6_socket.o)
 .note.GNU-stack
                0x00000000        0x0 libbb/lib.a(create_icmp6_socket.o)
 .text          0x00000000        0x0 libbb/lib.a(create_icmp_socket.o)
 .data          0x00000000        0x0 libbb/lib.a(create_icmp_socket.o)
 .bss           0x00000000        0x0 libbb/lib.a(create_icmp_socket.o)
 .note.GNU-stack
                0x00000000        0x0 libbb/lib.a(create_icmp_socket.o)
 .text          0x00000000        0x0 libbb/lib.a(crypt_make_salt.o)
 .data          0x00000000        0x0 libbb/lib.a(crypt_make_salt.o)
 .bss           0x00000000        0x0 libbb/lib.a(crypt_make_salt.o)
 .note.GNU-stack
                0x00000000        0x0 libbb/lib.a(crypt_make_salt.o)
 .text          0x00000000        0x0 libbb/lib.a(device_open.o)
 .data          0x00000000        0x0 libbb/lib.a(device_open.o)
 .bss           0x00000000        0x0 libbb/lib.a(device_open.o)
 .note.GNU-stack
                0x00000000        0x0 libbb/lib.a(device_open.o)
 .text          0x00000000        0x0 libbb/lib.a(find_pid_by_name.o)
 .data          0x00000000        0x0 libbb/lib.a(find_pid_by_name.o)
 .bss           0x00000000        0x0 libbb/lib.a(find_pid_by_name.o)
 .note.GNU-stack
                0x00000000        0x0 libbb/lib.a(find_pid_by_name.o)
 .text          0x00000000        0x0 libbb/lib.a(herror_msg.o)
 .data          0x00000000        0x0 libbb/lib.a(herror_msg.o)
 .bss           0x00000000        0x0 libbb/lib.a(herror_msg.o)
 .note.GNU-stack
                0x00000000        0x0 libbb/lib.a(herror_msg.o)
 .text          0x00000000        0x0 libbb/lib.a(herror_msg_and_die.o)
 .data          0x00000000        0x0 libbb/lib.a(herror_msg_and_die.o)
 .bss           0x00000000        0x0 libbb/lib.a(herror_msg_and_die.o)
 .note.GNU-stack
                0x00000000        0x0 libbb/lib.a(herror_msg_and_die.o)
 .text          0x00000000        0x0 libbb/lib.a(inet_common.o)
 .data          0x00000000        0x0 libbb/lib.a(inet_common.o)
 .bss           0x00000000        0x0 libbb/lib.a(inet_common.o)
 .note.GNU-stack
                0x00000000        0x0 libbb/lib.a(inet_common.o)
 .text          0x00000000        0x0 libbb/lib.a(info_msg.o)
 .data          0x00000000        0x0 libbb/lib.a(info_msg.o)
 .bss           0x00000000        0x0 libbb/lib.a(info_msg.o)
 .note.GNU-stack
                0x00000000        0x0 libbb/lib.a(info_msg.o)
 .text          0x00000000        0x0 libbb/lib.a(kernel_version.o)
 .data          0x00000000        0x0 libbb/lib.a(kernel_version.o)
 .bss           0x00000000        0x0 libbb/lib.a(kernel_version.o)
 .note.GNU-stack
                0x00000000        0x0 libbb/lib.a(kernel_version.o)
 .text          0x00000000        0x0 libbb/lib.a(lineedit.o)
 .data          0x00000000        0x0 libbb/lib.a(lineedit.o)
 .bss           0x00000000        0x0 libbb/lib.a(lineedit.o)
 .note.GNU-stack
                0x00000000        0x0 libbb/lib.a(lineedit.o)
 .text          0x00000000        0x0 libbb/lib.a(login.o)
 .data          0x00000000        0x0 libbb/lib.a(login.o)
 .bss           0x00000000        0x0 libbb/lib.a(login.o)
 .text.print_login_prompt
                0x00000000       0x58 libbb/lib.a(login.o)
 .note.GNU-stack
                0x00000000        0x0 libbb/lib.a(login.o)
 .text          0x00000000        0x0 libbb/lib.a(loop.o)
 .data          0x00000000        0x0 libbb/lib.a(loop.o)
 .bss           0x00000000        0x0 libbb/lib.a(loop.o)
 .text.query_loop
                0x00000000       0x64 libbb/lib.a(loop.o)
 .note.GNU-stack
                0x00000000        0x0 libbb/lib.a(loop.o)
 .text          0x00000000        0x0 libbb/lib.a(match_fstype.o)
 .data          0x00000000        0x0 libbb/lib.a(match_fstype.o)
 .bss           0x00000000        0x0 libbb/lib.a(match_fstype.o)
 .note.GNU-stack
                0x00000000        0x0 libbb/lib.a(match_fstype.o)
 .text          0x00000000        0x0 libbb/lib.a(obscure.o)
 .data          0x00000000        0x0 libbb/lib.a(obscure.o)
 .bss           0x00000000        0x0 libbb/lib.a(obscure.o)
 .note.GNU-stack
                0x00000000        0x0 libbb/lib.a(obscure.o)
 .text          0x00000000        0x0 libbb/lib.a(pidfile.o)
 .data          0x00000000        0x0 libbb/lib.a(pidfile.o)
 .bss           0x00000000        0x0 libbb/lib.a(pidfile.o)
 .note.GNU-stack
                0x00000000        0x0 libbb/lib.a(pidfile.o)
 .text          0x00000000        0x0 libbb/lib.a(pw_encrypt.o)
 .data          0x00000000        0x0 libbb/lib.a(pw_encrypt.o)
 .bss           0x00000000        0x0 libbb/lib.a(pw_encrypt.o)
 .note.GNU-stack
                0x00000000        0x0 libbb/lib.a(pw_encrypt.o)
 .text          0x00000000        0x0 libbb/lib.a(run_shell.o)
 .data          0x00000000        0x0 libbb/lib.a(run_shell.o)
 .bss           0x00000000        0x0 libbb/lib.a(run_shell.o)
 .note.GNU-stack
                0x00000000        0x0 libbb/lib.a(run_shell.o)
 .text          0x00000000        0x0 libbb/lib.a(setup_environment.o)
 .data          0x00000000        0x0 libbb/lib.a(setup_environment.o)
 .bss           0x00000000        0x0 libbb/lib.a(setup_environment.o)
 .note.GNU-stack
                0x00000000        0x0 libbb/lib.a(setup_environment.o)
 .text          0x00000000        0x0 libbb/lib.a(simplify_path.o)
 .data          0x00000000        0x0 libbb/lib.a(simplify_path.o)
 .bss           0x00000000        0x0 libbb/lib.a(simplify_path.o)
 .note.GNU-stack
                0x00000000        0x0 libbb/lib.a(simplify_path.o)
 .text          0x00000000        0x0 libbb/lib.a(time.o)
 .data          0x00000000        0x0 libbb/lib.a(time.o)
 .bss           0x00000000        0x0 libbb/lib.a(time.o)
 .text.monotonic_sec
                0x00000000        0x8 libbb/lib.a(time.o)
 .note.GNU-stack
                0x00000000        0x0 libbb/lib.a(time.o)
 .text          0x00000000        0x0 libbb/lib.a(trim.o)
 .data          0x00000000        0x0 libbb/lib.a(trim.o)
 .bss           0x00000000        0x0 libbb/lib.a(trim.o)
 .note.GNU-stack
                0x00000000        0x0 libbb/lib.a(trim.o)
 .text          0x00000000        0x0 libbb/lib.a(u_signal_names.o)
 .data          0x00000000        0x0 libbb/lib.a(u_signal_names.o)
 .bss           0x00000000        0x0 libbb/lib.a(u_signal_names.o)
 .note.GNU-stack
                0x00000000        0x0 libbb/lib.a(u_signal_names.o)
 .text          0x00000000        0x0 libbb/lib.a(update_passwd.o)
 .data          0x00000000        0x0 libbb/lib.a(update_passwd.o)
 .bss           0x00000000        0x0 libbb/lib.a(update_passwd.o)
 .note.GNU-stack
                0x00000000        0x0 libbb/lib.a(update_passwd.o)
 .text          0x00000000        0x0 libbb/lib.a(warn_ignoring_args.o)
 .data          0x00000000        0x0 libbb/lib.a(warn_ignoring_args.o)
 .bss           0x00000000        0x0 libbb/lib.a(warn_ignoring_args.o)
 .note.GNU-stack
                0x00000000        0x0 libbb/lib.a(warn_ignoring_args.o)
 .text          0x00000000        0x0 libbb/lib.a(xconnect.o)
 .data          0x00000000        0x0 libbb/lib.a(xconnect.o)
 .bss           0x00000000        0x0 libbb/lib.a(xconnect.o)
 .text.host_and_af2sockaddr
                0x00000000        0x8 libbb/lib.a(xconnect.o)
 .text.xsocket_stream
                0x00000000        0xc libbb/lib.a(xconnect.o)
 .text.create_and_bind_dgram_or_die
                0x00000000        0x8 libbb/lib.a(xconnect.o)
 .text.xconnect_stream
                0x00000000       0x34 libbb/lib.a(xconnect.o)
 .text.xmalloc_sockaddr2host
                0x00000000        0x8 libbb/lib.a(xconnect.o)
 .text.xmalloc_sockaddr2dotted
                0x00000000        0x8 libbb/lib.a(xconnect.o)
 .note.GNU-stack
                0x00000000        0x0 libbb/lib.a(xconnect.o)
 .text          0x00000000        0x0 libbb/lib.a(xgethostbyname.o)
 .data          0x00000000        0x0 libbb/lib.a(xgethostbyname.o)
 .bss           0x00000000        0x0 libbb/lib.a(xgethostbyname.o)
 .note.GNU-stack
                0x00000000        0x0 libbb/lib.a(xgethostbyname.o)
 .data          0x00000000        0x0 /projects/hnd/tools/linux/hndtools-arm-linux-2.6.36-uclibc-4.5.3/lib/gcc/arm-brcm-linux-uclibcgnueabi/4.5.3/libgcc.a(_udivsi3.o)
 .bss           0x00000000        0x0 /projects/hnd/tools/linux/hndtools-arm-linux-2.6.36-uclibc-4.5.3/lib/gcc/arm-brcm-linux-uclibcgnueabi/4.5.3/libgcc.a(_udivsi3.o)
 .note.GNU-stack
                0x00000000        0x0 /projects/hnd/tools/linux/hndtools-arm-linux-2.6.36-uclibc-4.5.3/lib/gcc/arm-brcm-linux-uclibcgnueabi/4.5.3/libgcc.a(_udivsi3.o)
 .data          0x00000000        0x0 /projects/hnd/tools/linux/hndtools-arm-linux-2.6.36-uclibc-4.5.3/lib/gcc/arm-brcm-linux-uclibcgnueabi/4.5.3/libgcc.a(_divsi3.o)
 .bss           0x00000000        0x0 /projects/hnd/tools/linux/hndtools-arm-linux-2.6.36-uclibc-4.5.3/lib/gcc/arm-brcm-linux-uclibcgnueabi/4.5.3/libgcc.a(_divsi3.o)
 .note.GNU-stack
                0x00000000        0x0 /projects/hnd/tools/linux/hndtools-arm-linux-2.6.36-uclibc-4.5.3/lib/gcc/arm-brcm-linux-uclibcgnueabi/4.5.3/libgcc.a(_divsi3.o)
 .data          0x00000000        0x0 /projects/hnd/tools/linux/hndtools-arm-linux-2.6.36-uclibc-4.5.3/lib/gcc/arm-brcm-linux-uclibcgnueabi/4.5.3/libgcc.a(_lshrdi3.o)
 .bss           0x00000000        0x0 /projects/hnd/tools/linux/hndtools-arm-linux-2.6.36-uclibc-4.5.3/lib/gcc/arm-brcm-linux-uclibcgnueabi/4.5.3/libgcc.a(_lshrdi3.o)
 .note.GNU-stack
                0x00000000        0x0 /projects/hnd/tools/linux/hndtools-arm-linux-2.6.36-uclibc-4.5.3/lib/gcc/arm-brcm-linux-uclibcgnueabi/4.5.3/libgcc.a(_lshrdi3.o)
 .data          0x00000000        0x0 /projects/hnd/tools/linux/hndtools-arm-linux-2.6.36-uclibc-4.5.3/lib/gcc/arm-brcm-linux-uclibcgnueabi/4.5.3/libgcc.a(_arm_addsubdf3.o)
 .bss           0x00000000        0x0 /projects/hnd/tools/linux/hndtools-arm-linux-2.6.36-uclibc-4.5.3/lib/gcc/arm-brcm-linux-uclibcgnueabi/4.5.3/libgcc.a(_arm_addsubdf3.o)
 .note.GNU-stack
                0x00000000        0x0 /projects/hnd/tools/linux/hndtools-arm-linux-2.6.36-uclibc-4.5.3/lib/gcc/arm-brcm-linux-uclibcgnueabi/4.5.3/libgcc.a(_arm_addsubdf3.o)
 .data          0x00000000        0x0 /projects/hnd/tools/linux/hndtools-arm-linux-2.6.36-uclibc-4.5.3/lib/gcc/arm-brcm-linux-uclibcgnueabi/4.5.3/libgcc.a(_arm_muldivdf3.o)
 .bss           0x00000000        0x0 /projects/hnd/tools/linux/hndtools-arm-linux-2.6.36-uclibc-4.5.3/lib/gcc/arm-brcm-linux-uclibcgnueabi/4.5.3/libgcc.a(_arm_muldivdf3.o)
 .note.GNU-stack
                0x00000000        0x0 /projects/hnd/tools/linux/hndtools-arm-linux-2.6.36-uclibc-4.5.3/lib/gcc/arm-brcm-linux-uclibcgnueabi/4.5.3/libgcc.a(_arm_muldivdf3.o)
 .data          0x00000000        0x0 /projects/hnd/tools/linux/hndtools-arm-linux-2.6.36-uclibc-4.5.3/lib/gcc/arm-brcm-linux-uclibcgnueabi/4.5.3/libgcc.a(_arm_cmpdf2.o)
 .bss           0x00000000        0x0 /projects/hnd/tools/linux/hndtools-arm-linux-2.6.36-uclibc-4.5.3/lib/gcc/arm-brcm-linux-uclibcgnueabi/4.5.3/libgcc.a(_arm_cmpdf2.o)
 .note.GNU-stack
                0x00000000        0x0 /projects/hnd/tools/linux/hndtools-arm-linux-2.6.36-uclibc-4.5.3/lib/gcc/arm-brcm-linux-uclibcgnueabi/4.5.3/libgcc.a(_arm_cmpdf2.o)
 .data          0x00000000        0x0 /projects/hnd/tools/linux/hndtools-arm-linux-2.6.36-uclibc-4.5.3/lib/gcc/arm-brcm-linux-uclibcgnueabi/4.5.3/libgcc.a(_arm_fixdfsi.o)
 .bss           0x00000000        0x0 /projects/hnd/tools/linux/hndtools-arm-linux-2.6.36-uclibc-4.5.3/lib/gcc/arm-brcm-linux-uclibcgnueabi/4.5.3/libgcc.a(_arm_fixdfsi.o)
 .note.GNU-stack
                0x00000000        0x0 /projects/hnd/tools/linux/hndtools-arm-linux-2.6.36-uclibc-4.5.3/lib/gcc/arm-brcm-linux-uclibcgnueabi/4.5.3/libgcc.a(_arm_fixdfsi.o)
 .data          0x00000000        0x0 /projects/hnd/tools/linux/hndtools-arm-linux-2.6.36-uclibc-4.5.3/lib/gcc/arm-brcm-linux-uclibcgnueabi/4.5.3/libgcc.a(_arm_fixunsdfsi.o)
 .bss           0x00000000        0x0 /projects/hnd/tools/linux/hndtools-arm-linux-2.6.36-uclibc-4.5.3/lib/gcc/arm-brcm-linux-uclibcgnueabi/4.5.3/libgcc.a(_arm_fixunsdfsi.o)
 .note.GNU-stack
                0x00000000        0x0 /projects/hnd/tools/linux/hndtools-arm-linux-2.6.36-uclibc-4.5.3/lib/gcc/arm-brcm-linux-uclibcgnueabi/4.5.3/libgcc.a(_arm_fixunsdfsi.o)
 .data          0x00000000        0x0 /projects/hnd/tools/linux/hndtools-arm-linux-2.6.36-uclibc-4.5.3/lib/gcc/arm-brcm-linux-uclibcgnueabi/4.5.3/libgcc.a(_aeabi_ldivmod.o)
 .bss           0x00000000        0x0 /projects/hnd/tools/linux/hndtools-arm-linux-2.6.36-uclibc-4.5.3/lib/gcc/arm-brcm-linux-uclibcgnueabi/4.5.3/libgcc.a(_aeabi_ldivmod.o)
 .note.GNU-stack
                0x00000000        0x0 /projects/hnd/tools/linux/hndtools-arm-linux-2.6.36-uclibc-4.5.3/lib/gcc/arm-brcm-linux-uclibcgnueabi/4.5.3/libgcc.a(_aeabi_ldivmod.o)
 .data          0x00000000        0x0 /projects/hnd/tools/linux/hndtools-arm-linux-2.6.36-uclibc-4.5.3/lib/gcc/arm-brcm-linux-uclibcgnueabi/4.5.3/libgcc.a(_aeabi_uldivmod.o)
 .bss           0x00000000        0x0 /projects/hnd/tools/linux/hndtools-arm-linux-2.6.36-uclibc-4.5.3/lib/gcc/arm-brcm-linux-uclibcgnueabi/4.5.3/libgcc.a(_aeabi_uldivmod.o)
 .note.GNU-stack
                0x00000000        0x0 /projects/hnd/tools/linux/hndtools-arm-linux-2.6.36-uclibc-4.5.3/lib/gcc/arm-brcm-linux-uclibcgnueabi/4.5.3/libgcc.a(_aeabi_uldivmod.o)
 .data          0x00000000        0x0 /projects/hnd/tools/linux/hndtools-arm-linux-2.6.36-uclibc-4.5.3/lib/gcc/arm-brcm-linux-uclibcgnueabi/4.5.3/libgcc.a(_dvmd_lnx.o)
 .bss           0x00000000        0x0 /projects/hnd/tools/linux/hndtools-arm-linux-2.6.36-uclibc-4.5.3/lib/gcc/arm-brcm-linux-uclibcgnueabi/4.5.3/libgcc.a(_dvmd_lnx.o)
 .note.GNU-stack
                0x00000000        0x0 /projects/hnd/tools/linux/hndtools-arm-linux-2.6.36-uclibc-4.5.3/lib/gcc/arm-brcm-linux-uclibcgnueabi/4.5.3/libgcc.a(_dvmd_lnx.o)
 .data          0x00000000        0x0 /projects/hnd/tools/linux/hndtools-arm-linux-2.6.36-uclibc-4.5.3/lib/gcc/arm-brcm-linux-uclibcgnueabi/4.5.3/libgcc.a(bpabi.o)
 .bss           0x00000000        0x0 /projects/hnd/tools/linux/hndtools-arm-linux-2.6.36-uclibc-4.5.3/lib/gcc/arm-brcm-linux-uclibcgnueabi/4.5.3/libgcc.a(bpabi.o)
 .ARM.extab     0x00000000        0x0 /projects/hnd/tools/linux/hndtools-arm-linux-2.6.36-uclibc-4.5.3/lib/gcc/arm-brcm-linux-uclibcgnueabi/4.5.3/libgcc.a(bpabi.o)
 .note.GNU-stack
                0x00000000        0x0 /projects/hnd/tools/linux/hndtools-arm-linux-2.6.36-uclibc-4.5.3/lib/gcc/arm-brcm-linux-uclibcgnueabi/4.5.3/libgcc.a(bpabi.o)
 .data          0x00000000        0x0 /projects/hnd/tools/linux/hndtools-arm-linux-2.6.36-uclibc-4.5.3/lib/gcc/arm-brcm-linux-uclibcgnueabi/4.5.3/libgcc.a(_divdi3.o)
 .bss           0x00000000        0x0 /projects/hnd/tools/linux/hndtools-arm-linux-2.6.36-uclibc-4.5.3/lib/gcc/arm-brcm-linux-uclibcgnueabi/4.5.3/libgcc.a(_divdi3.o)
 .ARM.extab     0x00000000        0x0 /projects/hnd/tools/linux/hndtools-arm-linux-2.6.36-uclibc-4.5.3/lib/gcc/arm-brcm-linux-uclibcgnueabi/4.5.3/libgcc.a(_divdi3.o)
 .note.GNU-stack
                0x00000000        0x0 /projects/hnd/tools/linux/hndtools-arm-linux-2.6.36-uclibc-4.5.3/lib/gcc/arm-brcm-linux-uclibcgnueabi/4.5.3/libgcc.a(_divdi3.o)
 .data          0x00000000        0x0 /projects/hnd/tools/linux/hndtools-arm-linux-2.6.36-uclibc-4.5.3/lib/gcc/arm-brcm-linux-uclibcgnueabi/4.5.3/libgcc.a(_udivdi3.o)
 .bss           0x00000000        0x0 /projects/hnd/tools/linux/hndtools-arm-linux-2.6.36-uclibc-4.5.3/lib/gcc/arm-brcm-linux-uclibcgnueabi/4.5.3/libgcc.a(_udivdi3.o)
 .ARM.extab     0x00000000        0x0 /projects/hnd/tools/linux/hndtools-arm-linux-2.6.36-uclibc-4.5.3/lib/gcc/arm-brcm-linux-uclibcgnueabi/4.5.3/libgcc.a(_udivdi3.o)
 .note.GNU-stack
                0x00000000        0x0 /projects/hnd/tools/linux/hndtools-arm-linux-2.6.36-uclibc-4.5.3/lib/gcc/arm-brcm-linux-uclibcgnueabi/4.5.3/libgcc.a(_udivdi3.o)
 .data          0x00000000        0x0 /projects/hnd/tools/linux/hndtools-arm-linux-2.6.36-uclibc-4.5.3/arm-brcm-linux-uclibcgnueabi/sysroot/usr/lib/uclibc_nonshared.a(atexit.os)
 .bss           0x00000000        0x0 /projects/hnd/tools/linux/hndtools-arm-linux-2.6.36-uclibc-4.5.3/arm-brcm-linux-uclibcgnueabi/sysroot/usr/lib/uclibc_nonshared.a(atexit.os)
 .note.GNU-stack
                0x00000000        0x0 /projects/hnd/tools/linux/hndtools-arm-linux-2.6.36-uclibc-4.5.3/arm-brcm-linux-uclibcgnueabi/sysroot/usr/lib/uclibc_nonshared.a(atexit.os)
 .text          0x00000000        0x0 /projects/hnd/tools/linux/hndtools-arm-linux-2.6.36-uclibc-4.5.3/lib/gcc/arm-brcm-linux-uclibcgnueabi/4.5.3/crtend.o
 .data          0x00000000        0x0 /projects/hnd/tools/linux/hndtools-arm-linux-2.6.36-uclibc-4.5.3/lib/gcc/arm-brcm-linux-uclibcgnueabi/4.5.3/crtend.o
 .bss           0x00000000        0x0 /projects/hnd/tools/linux/hndtools-arm-linux-2.6.36-uclibc-4.5.3/lib/gcc/arm-brcm-linux-uclibcgnueabi/4.5.3/crtend.o
 .note.GNU-stack
                0x00000000        0x0 /projects/hnd/tools/linux/hndtools-arm-linux-2.6.36-uclibc-4.5.3/lib/gcc/arm-brcm-linux-uclibcgnueabi/4.5.3/crtend.o
 .text          0x00000000        0x0 /projects/hnd/tools/linux/hndtools-arm-linux-2.6.36-uclibc-4.5.3/arm-brcm-linux-uclibcgnueabi/sysroot/usr/lib/crtn.o
 .data          0x00000000        0x0 /projects/hnd/tools/linux/hndtools-arm-linux-2.6.36-uclibc-4.5.3/arm-brcm-linux-uclibcgnueabi/sysroot/usr/lib/crtn.o
 .bss           0x00000000        0x0 /projects/hnd/tools/linux/hndtools-arm-linux-2.6.36-uclibc-4.5.3/arm-brcm-linux-uclibcgnueabi/sysroot/usr/lib/crtn.o
 .note.GNU-stack
                0x00000000        0x0 /projects/hnd/tools/linux/hndtools-arm-linux-2.6.36-uclibc-4.5.3/arm-brcm-linux-uclibcgnueabi/sysroot/usr/lib/crtn.o

Memory Configuration

Name             Origin             Length             Attributes
*default*        0x00000000         0xffffffff

Linker script and memory map

LOAD /projects/hnd/tools/linux/hndtools-arm-linux-2.6.36-uclibc-4.5.3/arm-brcm-linux-uclibcgnueabi/sysroot/usr/lib/crt1.o
LOAD /projects/hnd/tools/linux/hndtools-arm-linux-2.6.36-uclibc-4.5.3/arm-brcm-linux-uclibcgnueabi/sysroot/usr/lib/crti.o
LOAD /projects/hnd/tools/linux/hndtools-arm-linux-2.6.36-uclibc-4.5.3/lib/gcc/arm-brcm-linux-uclibcgnueabi/4.5.3/crtbegin.o
START GROUP
LOAD applets/built-in.o
LOAD archival/lib.a
LOAD archival/libunarchive/lib.a
LOAD console-tools/lib.a
LOAD coreutils/lib.a
LOAD coreutils/libcoreutils/lib.a
LOAD debianutils/lib.a
LOAD e2fsprogs/lib.a
LOAD editors/lib.a
LOAD findutils/lib.a
LOAD init/lib.a
LOAD ipsvd/lib.a
LOAD libbb/lib.a
LOAD libpwdgrp/lib.a
LOAD loginutils/lib.a
LOAD miscutils/lib.a
LOAD modutils/lib.a
LOAD networking/lib.a
LOAD networking/libiproute/lib.a
LOAD networking/udhcp/lib.a
LOAD procps/lib.a
LOAD runit/lib.a
LOAD selinux/lib.a
LOAD shell/lib.a
LOAD sysklogd/lib.a
LOAD util-linux/lib.a
LOAD archival/built-in.o
LOAD archival/libunarchive/built-in.o
LOAD console-tools/built-in.o
LOAD coreutils/built-in.o
LOAD coreutils/libcoreutils/built-in.o
LOAD debianutils/built-in.o
LOAD e2fsprogs/built-in.o
LOAD editors/built-in.o
LOAD findutils/built-in.o
LOAD init/built-in.o
LOAD ipsvd/built-in.o
LOAD libbb/built-in.o
LOAD libpwdgrp/built-in.o
LOAD loginutils/built-in.o
LOAD miscutils/built-in.o
LOAD modutils/built-in.o
LOAD networking/built-in.o
LOAD networking/libiproute/built-in.o
LOAD networking/udhcp/built-in.o
LOAD procps/built-in.o
LOAD runit/built-in.o
LOAD selinux/built-in.o
LOAD shell/built-in.o
LOAD sysklogd/built-in.o
LOAD util-linux/built-in.o
END GROUP
START GROUP
LOAD /projects/hnd/tools/linux/hndtools-arm-linux-2.6.36-uclibc-4.5.3/arm-brcm-linux-uclibcgnueabi/sysroot/usr/lib/libcrypt.so
LOAD /projects/hnd/tools/linux/hndtools-arm-linux-2.6.36-uclibc-4.5.3/arm-brcm-linux-uclibcgnueabi/sysroot/usr/lib/libm.so
END GROUP
LOAD /projects/hnd/tools/linux/hndtools-arm-linux-2.6.36-uclibc-4.5.3/lib/gcc/arm-brcm-linux-uclibcgnueabi/4.5.3/libgcc.a
LOAD /projects/hnd/tools/linux/hndtools-arm-linux-2.6.36-uclibc-4.5.3/lib/gcc/arm-brcm-linux-uclibcgnueabi/4.5.3/../../../../arm-brcm-linux-uclibcgnueabi/lib/libgcc_s.so
START GROUP
LOAD /projects/hnd/tools/linux/hndtools-arm-linux-2.6.36-uclibc-4.5.3/lib/gcc/arm-brcm-linux-uclibcgnueabi/4.5.3/../../../../arm-brcm-linux-uclibcgnueabi/lib/libgcc_s.so.1
LOAD /projects/hnd/tools/linux/hndtools-arm-linux-2.6.36-uclibc-4.5.3/lib/gcc/arm-brcm-linux-uclibcgnueabi/4.5.3/libgcc.a
END GROUP
LOAD /projects/hnd/tools/linux/hndtools-arm-linux-2.6.36-uclibc-4.5.3/arm-brcm-linux-uclibcgnueabi/sysroot/usr/lib/libc.so
START GROUP
LOAD /projects/hnd/tools/linux/hndtools-arm-linux-2.6.36-uclibc-4.5.3/arm-brcm-linux-uclibcgnueabi/sysroot/lib/libc.so.0
LOAD /projects/hnd/tools/linux/hndtools-arm-linux-2.6.36-uclibc-4.5.3/arm-brcm-linux-uclibcgnueabi/sysroot/usr/lib/uclibc_nonshared.a
LOAD /projects/hnd/tools/linux/hndtools-arm-linux-2.6.36-uclibc-4.5.3/arm-brcm-linux-uclibcgnueabi/sysroot/lib/ld-uClibc.so.0
END GROUP
LOAD /projects/hnd/tools/linux/hndtools-arm-linux-2.6.36-uclibc-4.5.3/lib/gcc/arm-brcm-linux-uclibcgnueabi/4.5.3/libgcc.a
LOAD /projects/hnd/tools/linux/hndtools-arm-linux-2.6.36-uclibc-4.5.3/lib/gcc/arm-brcm-linux-uclibcgnueabi/4.5.3/../../../../arm-brcm-linux-uclibcgnueabi/lib/libgcc_s.so
START GROUP
LOAD /projects/hnd/tools/linux/hndtools-arm-linux-2.6.36-uclibc-4.5.3/lib/gcc/arm-brcm-linux-uclibcgnueabi/4.5.3/../../../../arm-brcm-linux-uclibcgnueabi/lib/libgcc_s.so.1
LOAD /projects/hnd/tools/linux/hndtools-arm-linux-2.6.36-uclibc-4.5.3/lib/gcc/arm-brcm-linux-uclibcgnueabi/4.5.3/libgcc.a
END GROUP
LOAD /projects/hnd/tools/linux/hndtools-arm-linux-2.6.36-uclibc-4.5.3/lib/gcc/arm-brcm-linux-uclibcgnueabi/4.5.3/crtend.o
LOAD /projects/hnd/tools/linux/hndtools-arm-linux-2.6.36-uclibc-4.5.3/arm-brcm-linux-uclibcgnueabi/sysroot/usr/lib/crtn.o
                0x00008000                PROVIDE (__executable_start, 0x8000)
                0x00008114                . = (0x8000 + SIZEOF_HEADERS)

.interp         0x00008114       0x14
 *(.interp)
 .interp        0x00008114       0x14 /projects/hnd/tools/linux/hndtools-arm-linux-2.6.36-uclibc-4.5.3/arm-brcm-linux-uclibcgnueabi/sysroot/usr/lib/libcrypt.so

.note.gnu.build-id
 *(.note.gnu.build-id)

.hash           0x00008128      0x948
 *(.hash)
 .hash          0x00008128      0x948 /projects/hnd/tools/linux/hndtools-arm-linux-2.6.36-uclibc-4.5.3/arm-brcm-linux-uclibcgnueabi/sysroot/usr/lib/libcrypt.so

.gnu.hash
 *(.gnu.hash)

.dynsym         0x00008a70     0x1490
 *(.dynsym)
 .dynsym        0x00008a70     0x1490 /projects/hnd/tools/linux/hndtools-arm-linux-2.6.36-uclibc-4.5.3/arm-brcm-linux-uclibcgnueabi/sysroot/usr/lib/libcrypt.so

.dynstr         0x00009f00      0xa84
 *(.dynstr)
 .dynstr        0x00009f00      0xa84 /projects/hnd/tools/linux/hndtools-arm-linux-2.6.36-uclibc-4.5.3/arm-brcm-linux-uclibcgnueabi/sysroot/usr/lib/libcrypt.so

.gnu.version    0x0000a984      0x292
 *(.gnu.version)
 .gnu.version   0x0000a984      0x292 /projects/hnd/tools/linux/hndtools-arm-linux-2.6.36-uclibc-4.5.3/arm-brcm-linux-uclibcgnueabi/sysroot/usr/lib/libcrypt.so

.gnu.version_d  0x0000ac18        0x0
 *(.gnu.version_d)
 .gnu.version_d
                0x00000000        0x0 /projects/hnd/tools/linux/hndtools-arm-linux-2.6.36-uclibc-4.5.3/arm-brcm-linux-uclibcgnueabi/sysroot/usr/lib/libcrypt.so

.gnu.version_r  0x0000ac18       0x20
 *(.gnu.version_r)
 .gnu.version_r
                0x0000ac18       0x20 /projects/hnd/tools/linux/hndtools-arm-linux-2.6.36-uclibc-4.5.3/arm-brcm-linux-uclibcgnueabi/sysroot/usr/lib/libcrypt.so

.rel.dyn        0x0000ac38       0x38
 *(.rel.init)
 *(.rel.text .rel.text.* .rel.gnu.linkonce.t.*)
 *(.rel.fini)
 *(.rel.rodata .rel.rodata.* .rel.gnu.linkonce.r.*)
 *(.rel.data.rel.ro* .rel.gnu.linkonce.d.rel.ro.*)
 *(.rel.data .rel.data.* .rel.gnu.linkonce.d.*)
 *(.rel.tdata .rel.tdata.* .rel.gnu.linkonce.td.*)
 *(.rel.tbss .rel.tbss.* .rel.gnu.linkonce.tb.*)
 *(.rel.ctors)
 *(.rel.dtors)
 *(.rel.got)
 .rel.got       0x00000000        0x0 /projects/hnd/tools/linux/hndtools-arm-linux-2.6.36-uclibc-4.5.3/arm-brcm-linux-uclibcgnueabi/sysroot/usr/lib/libcrypt.so
 *(.rel.bss .rel.bss.* .rel.gnu.linkonce.b.*)
 .rel.bss       0x0000ac38       0x38 /projects/hnd/tools/linux/hndtools-arm-linux-2.6.36-uclibc-4.5.3/arm-brcm-linux-uclibcgnueabi/sysroot/usr/lib/libcrypt.so
                0x0000ac70                PROVIDE (__rel_iplt_start, .)
 *(.rel.iplt)
                0x0000ac70                PROVIDE (__rel_iplt_end, .)
                0x0000ac70                PROVIDE (__rela_iplt_start, .)
                0x0000ac70                PROVIDE (__rela_iplt_end, .)

.rela.dyn       0x0000ac70        0x0
 *(.rela.init)
 *(.rela.text .rela.text.* .rela.gnu.linkonce.t.*)
 *(.rela.fini)
 *(.rela.rodata .rela.rodata.* .rela.gnu.linkonce.r.*)
 *(.rela.data .rela.data.* .rela.gnu.linkonce.d.*)
 *(.rela.tdata .rela.tdata.* .rela.gnu.linkonce.td.*)
 *(.rela.tbss .rela.tbss.* .rela.gnu.linkonce.tb.*)
 *(.rela.ctors)
 *(.rela.dtors)
 *(.rela.got)
 *(.rela.bss .rela.bss.* .rela.gnu.linkonce.b.*)
                0x0000ac70                PROVIDE (__rel_iplt_start, .)
                0x0000ac70                PROVIDE (__rel_iplt_end, .)
                0x0000ac70                PROVIDE (__rela_iplt_start, .)
 *(.rela.iplt)
                0x0000ac70                PROVIDE (__rela_iplt_end, .)

.rel.plt        0x0000ac70      0x998
 *(.rel.plt)
 .rel.plt       0x0000ac70      0x998 /projects/hnd/tools/linux/hndtools-arm-linux-2.6.36-uclibc-4.5.3/arm-brcm-linux-uclibcgnueabi/sysroot/usr/lib/libcrypt.so

.rela.plt
 *(.rela.plt)

.init           0x0000b608       0x10
 *(.init)
 .init          0x0000b608        0xc /projects/hnd/tools/linux/hndtools-arm-linux-2.6.36-uclibc-4.5.3/arm-brcm-linux-uclibcgnueabi/sysroot/usr/lib/crti.o
                0x0000b608                _init
 .init          0x0000b614        0x4 /projects/hnd/tools/linux/hndtools-arm-linux-2.6.36-uclibc-4.5.3/arm-brcm-linux-uclibcgnueabi/sysroot/usr/lib/crtn.o

.plt            0x0000b618      0xe78
 *(.plt)
 .plt           0x0000b618      0xe78 /projects/hnd/tools/linux/hndtools-arm-linux-2.6.36-uclibc-4.5.3/arm-brcm-linux-uclibcgnueabi/sysroot/usr/lib/libcrypt.so
                0x0000b62c                dirname
                0x0000b638                getpriority
                0x0000b644                _setjmp
                0x0000b650                tolower
                0x0000b65c                tcgetpgrp
                0x0000b668                vasprintf
                0x0000b674                fchdir
                0x0000b680                bind
                0x0000b68c                sysconf
                0x0000b6a4                gethostbyname
                0x0000b6b0                difftime
                0x0000b6bc                sqrt
                0x0000b6c8                strftime
                0x0000b6d4                mknod
                0x0000b6e0                __errno_location
                0x0000b6ec                inet_aton
                0x0000b6f8                fcntl64
                0x0000b704                delete_module
                0x0000b710                getenv
                0x0000b71c                regexec
                0x0000b728                toupper
                0x0000b734                fgetpwent_r
                0x0000b740                system
                0x0000b74c                __res_state
                0x0000b758                crypt
                0x0000b764                usleep
                0x0000b770                memcpy
                0x0000b77c                umount2
                0x0000b788                connect
                0x0000b794                sigfillset
                0x0000b7a0                uname
                0x0000b7ac                xdr_opaque
                0x0000b7b8                clntudp_create
                0x0000b7c4                div
                0x0000b7d0                pmap_getmaps
                0x0000b7dc                getpgrp
                0x0000b7e8                sleep
                0x0000b7f4                realloc
                0x0000b800                getprotobyname
                0x0000b80c                syscall
                0x0000b818                vfprintf
                0x0000b824                endmntent
                0x0000b830                sysinfo
                0x0000b83c                getegid
                0x0000b848                readlink
                0x0000b854                strspn
                0x0000b860                clnttcp_create
                0x0000b86c                getsockname
                0x0000b878                gettimeofday
                0x0000b884                __res_init
                0x0000b890                strcat
                0x0000b89c                fstat64
                0x0000b8a8                feof
                0x0000b8b4                wait4
                0x0000b8c0                realpath
                0x0000b8cc                lchown
                0x0000b8d8                execve
                0x0000b8e4                remove
                0x0000b8f0                chown
                0x0000b8fc                getspnam_r
                0x0000b908                rmdir
                0x0000b914                symlink
                0x0000b920                openlog
                0x0000b92c                putenv
                0x0000b938                getcwd
                0x0000b944                __cmsg_nxthdr
                0x0000b950                getnameinfo
                0x0000b95c                setenv
                0x0000b968                strcasecmp
                0x0000b974                pmap_getport
                0x0000b980                freeaddrinfo
                0x0000b98c                strtoul
                0x0000b998                mkdir
                0x0000b9a4                malloc
                0x0000b9b0                klogctl
                0x0000b9bc                strrchr
                0x0000b9c8                strncmp
                0x0000b9d4                __uClibc_main
                0x0000b9e0                inet_pton
                0x0000b9ec                fopen64
                0x0000b9f8                __ctype_toupper_loc
                0x0000ba04                xdr_u_int
                0x0000ba10                getmntent_r
                0x0000ba1c                __ctype_tolower_loc
                0x0000ba28                ioctl
                0x0000ba34                recv
                0x0000ba40                strlen
                0x0000ba4c                authunix_create_default
                0x0000ba58                ctime
                0x0000ba64                opendir
                0x0000ba70                setmntent
                0x0000ba7c                strtod
                0x0000ba88                __cxa_atexit
                0x0000ba94                sendto
                0x0000baa0                strtol
                0x0000baac                isalnum
                0x0000bab8                sendmsg
                0x0000bac4                snprintf
                0x0000bad0                setpgid
                0x0000badc                dup
                0x0000bae8                dup2
                0x0000baf4                read
                0x0000bb00                endgrent
                0x0000bb0c                lseek64
                0x0000bb18                islower
                0x0000bb24                execv
                0x0000bb30                select
                0x0000bb3c                _exit
                0x0000bb48                strncasecmp
                0x0000bb54                initgroups
                0x0000bb60                isupper
                0x0000bb6c                utime
                0x0000bb78                access
                0x0000bb84                fdopen
                0x0000bb90                stat64
                0x0000bb9c                ftello64
                0x0000bba8                ispunct
                0x0000bbb4                getpid
                0x0000bbc0                sethostname
                0x0000bbcc                putpwent
                0x0000bbd8                sched_yield
                0x0000bbe4                strtoull
                0x0000bbf0                sigprocmask
                0x0000bbfc                mktime
                0x0000bc08                create_module
                0x0000bc14                memmove
                0x0000bc20                gethostid
                0x0000bc2c                strsep
                0x0000bc38                pclose
                0x0000bc44                fclose
                0x0000bc50                cfmakeraw
                0x0000bc5c                setsockopt
                0x0000bc68                fread
                0x0000bc74                wait3
                0x0000bc80                bsearch
                0x0000bc8c                strncat
                0x0000bc98                vsprintf
                0x0000bca4                pivot_root
                0x0000bcb0                log
                0x0000bcbc                gethostname
                0x0000bcc8                chmod
                0x0000bcd4                vsyslog
                0x0000bce0                dprintf
                0x0000bcec                xdr_enum
                0x0000bcf8                tcsetpgrp
                0x0000bd04                lstat64
                0x0000bd10                time
                0x0000bd1c                fgetc
                0x0000bd28                strtok
                0x0000bd34                fileno
                0x0000bd40                vprintf
                0x0000bd4c                write
                0x0000bd58                getpwnam
                0x0000bd64                iscntrl
                0x0000bd70                isatty
                0x0000bd7c                times
                0x0000bd88                closedir
                0x0000bd94                strchrnul
                0x0000bda0                longjmp
                0x0000bdac                __xpg_basename
                0x0000bdb8                setpriority
                0x0000bdc4                killpg
                0x0000bdd0                localtime
                0x0000bddc                close
                0x0000bde8                fputc
                0x0000bdf4                getpwuid
                0x0000be00                setsid
                0x0000be0c                mkfifo
                0x0000be18                shmget
                0x0000be24                getdomainname
                0x0000be30                regfree
                0x0000be3c                fgets
                0x0000be48                clnt_sperror
                0x0000be54                sigaction
                0x0000be60                ferror
                0x0000be6c                umask
                0x0000be78                sscanf
                0x0000be84                strncpy
                0x0000be90                semctl
                0x0000be9c                shmat
                0x0000bea8                tcsetattr
                0x0000beb4                shmdt
                0x0000bec0                link
                0x0000becc                init_module
                0x0000bed8                fputs
                0x0000bee4                setuid
                0x0000bef0                setresuid
                0x0000befc                tcgetattr
                0x0000bf08                unsetenv
                0x0000bf14                getppid
                0x0000bf20                chdir
                0x0000bf2c                clnt_spcreateerror
                0x0000bf38                unlink
                0x0000bf44                execl
                0x0000bf50                sync
                0x0000bf5c                regerror
                0x0000bf68                fflush
                0x0000bf74                memset
                0x0000bf80                inet_ntoa
                0x0000bf8c                hstrerror
                0x0000bf98                if_nametoindex
                0x0000bfa4                qsort
                0x0000bfb0                perror
                0x0000bfbc                __h_errno_location
                0x0000bfc8                stime
                0x0000bfd4                getservbyport
                0x0000bfe0                xdr_string
                0x0000bfec                vfork
                0x0000bff8                getuid
                0x0000c004                tcflush
                0x0000c010                vdprintf
                0x0000c01c                fprintf
                0x0000c028                recvmsg
                0x0000c034                inet_addr
                0x0000c040                fnmatch
                0x0000c04c                strcspn
                0x0000c058                shmctl
                0x0000c064                abort
                0x0000c070                memcmp
                0x0000c07c                vsnprintf
                0x0000c088                fchown
                0x0000c094                recvfrom
                0x0000c0a0                syslog
                0x0000c0ac                isprint
                0x0000c0b8                sigemptyset
                0x0000c0c4                sprintf
                0x0000c0d0                xdr_bytes
                0x0000c0dc                clearerr
                0x0000c0e8                strcasestr
                0x0000c0f4                strnlen
                0x0000c100                socket
                0x0000c10c                fseek
                0x0000c118                exp
                0x0000c124                sin
                0x0000c130                regcomp
                0x0000c13c                rand
                0x0000c148                memchr
                0x0000c154                statfs64
                0x0000c160                isalpha
                0x0000c16c                exit
                0x0000c178                rename
                0x0000c184                fork
                0x0000c190                semget
                0x0000c19c                getmntent
                0x0000c1a8                raise
                0x0000c1b4                pow
                0x0000c1c0                semop
                0x0000c1cc                isblank
                0x0000c1d8                strstr
                0x0000c1e4                open64
                0x0000c1f0                strcmp
                0x0000c1fc                atan2
                0x0000c208                getgrgid
                0x0000c214                getopt
                0x0000c220                waitpid
                0x0000c22c                execlp
                0x0000c238                setrlimit64
                0x0000c244                query_module
                0x0000c250                ungetc
                0x0000c25c                ftell
                0x0000c268                accept
                0x0000c274                mount
                0x0000c280                free
                0x0000c28c                xdr_array
                0x0000c298                atoi
                0x0000c2a4                strpbrk
                0x0000c2b0                alarm
                0x0000c2bc                strchr
                0x0000c2c8                fchmod
                0x0000c2d4                fsync
                0x0000c2e0                cos
                0x0000c2ec                getgid
                0x0000c2f8                strerror
                0x0000c304                isspace
                0x0000c310                listen
                0x0000c31c                srand
                0x0000c328                printf
                0x0000c334                getopt_long
                0x0000c340                popen
                0x0000c34c                getgrnam
                0x0000c358                getservbyname
                0x0000c364                mkstemp64
                0x0000c370                strdup
                0x0000c37c                puts
                0x0000c388                fscanf
                0x0000c394                setresgid
                0x0000c3a0                setgid
                0x0000c3ac                ftruncate64
                0x0000c3b8                getrlimit64
                0x0000c3c4                execvp
                0x0000c3d0                signal
                0x0000c3dc                umount
                0x0000c3e8                inet_ntop
                0x0000c3f4                gethostbyaddr
                0x0000c400                readdir64
                0x0000c40c                strsignal
                0x0000c418                xdr_int
                0x0000c424                pipe
                0x0000c430                getaddrinfo
                0x0000c43c                bindresvport
                0x0000c448                strcpy
                0x0000c454                kill
                0x0000c460                geteuid
                0x0000c46c                clearenv
                0x0000c484                getgroups

.iplt
 *(.iplt)

.text           0x0000c490    0x48aec
 *(.text.unlikely .text.*_unlikely)
 *(.text.exit .text.exit.*)
 *(.text.startup .text.startup.*)
 *(.text.hot .text.hot.*)
 *(.text .stub .text.* .gnu.linkonce.t.*)
 .text          0x0000c490       0x3c /projects/hnd/tools/linux/hndtools-arm-linux-2.6.36-uclibc-4.5.3/arm-brcm-linux-uclibcgnueabi/sysroot/usr/lib/crt1.o
                0x0000c490                _start
 .text          0x0000c4cc       0x98 /projects/hnd/tools/linux/hndtools-arm-linux-2.6.36-uclibc-4.5.3/lib/gcc/arm-brcm-linux-uclibcgnueabi/4.5.3/crtbegin.o
 .text.get_trimmed_slice
                0x0000c564       0x40 applets/built-in.o
 .text.applet_name_compare
                0x0000c5a4        0x8 applets/built-in.o
 .text.bb_show_usage
                0x0000c5ac       0xfc applets/built-in.o
                0x0000c5ac                bb_show_usage
 .text.find_applet_by_name
                0x0000c6a8       0x28 applets/built-in.o
                0x0000c6a8                find_applet_by_name
 .text.parse_config_file
                0x0000c6d0      0x3c8 applets/built-in.o
 .text.run_current_applet_and_exit
                0x0000ca98      0x224 applets/built-in.o
                0x0000ca98                run_current_applet_and_exit
 .text.run_applet_and_exit
                0x0000ccbc      0x17c applets/built-in.o
                0x0000ccbc                run_applet_and_exit
 .text.main     0x0000ce38       0x64 applets/built-in.o
                0x0000ce38                main
 .text.unpack_gunzip
                0x0000ce9c       0x84 archival/lib.a(bbunzip.o)
 .text.make_new_name_gunzip
                0x0000cf20       0xa4 archival/lib.a(bbunzip.o)
 .text.open_to_or_warn
                0x0000cfc4       0x38 archival/lib.a(bbunzip.o)
 .text.bbunpack
                0x0000cffc      0x1e0 archival/lib.a(bbunzip.o)
                0x0000cffc                bbunpack
 .text.gunzip_main
                0x0000d1dc       0x68 archival/lib.a(bbunzip.o)
                0x0000d1dc                gunzip_main
 .text.bi_reverse
                0x0000d244       0x2c archival/lib.a(gzip.o)
 .text.init_block
                0x0000d270       0xbc archival/lib.a(gzip.o)
 .text.pqdownheap
                0x0000d32c       0xf0 archival/lib.a(gzip.o)
 .text.gen_codes
                0x0000d41c       0xa0 archival/lib.a(gzip.o)
 .text.build_tree
                0x0000d4bc      0x45c archival/lib.a(gzip.o)
 .text.scan_tree
                0x0000d918      0x13c archival/lib.a(gzip.o)
 .text.ct_tally
                0x0000da54      0x1b4 archival/lib.a(gzip.o)
 .text.file_read
                0x0000dc08       0x70 archival/lib.a(gzip.o)
 .text.fill_window
                0x0000dc78      0x108 archival/lib.a(gzip.o)
 .text.flush_outbuf
                0x0000dd80       0x34 archival/lib.a(gzip.o)
 .text.put_16bit
                0x0000ddb4       0x84 archival/lib.a(gzip.o)
 .text.send_bits
                0x0000de38       0x6c archival/lib.a(gzip.o)
 .text.send_tree
                0x0000dea4      0x188 archival/lib.a(gzip.o)
 .text.compress_block
                0x0000e02c      0x16c archival/lib.a(gzip.o)
 .text.put_32bit
                0x0000e198       0x1c archival/lib.a(gzip.o)
 .text.bi_windup
                0x0000e1b4       0x64 archival/lib.a(gzip.o)
 .text.make_new_name_gzip
                0x0000e218       0x10 archival/lib.a(gzip.o)
 .text.flush_block
                0x0000e228      0x2c4 archival/lib.a(gzip.o)
 .text.pack_gzip
                0x0000e4ec      0x83c archival/lib.a(gzip.o)
 .text.gzip_main
                0x0000ed28      0x1ac archival/lib.a(gzip.o)
                0x0000ed28                gzip_main
 .text.gnu_dev_major
                0x0000eed4       0x14 archival/lib.a(tar.o)
 .text.gnu_dev_minor
                0x0000eee8       0x18 archival/lib.a(tar.o)
 .text.writeTarFile
                0x0000ef00      0x2e0 archival/lib.a(tar.o)
 .text.putOctal
                0x0000f1e0       0x5c archival/lib.a(tar.o)
 .text.chksum_and_xwrite
                0x0000f23c       0x70 archival/lib.a(tar.o)
 .text.writeLongname
                0x0000f2ac       0xf8 archival/lib.a(tar.o)
 .text.writeTarHeader
                0x0000f3a4      0x330 archival/lib.a(tar.o)
 .text.writeFileToTarball
                0x0000f6d4      0x234 archival/lib.a(tar.o)
 .text.tar_main
                0x0000f908      0x304 archival/lib.a(tar.o)
                0x0000f908                tar_main
 .text.check_header_gzip_or_die
                0x0000fc0c       0xc8 archival/libunarchive/lib.a(check_header_gzip.o)
                0x0000fc0c                check_header_gzip_or_die
 .text.data_extract_all
                0x0000fcd4      0x324 archival/libunarchive/lib.a(data_extract_all.o)
                0x0000fcd4                data_extract_all
 .text.data_extract_to_stdout
                0x0000fff8       0x14 archival/libunarchive/lib.a(data_extract_to_stdout.o)
                0x0000fff8                data_extract_to_stdout
 .text.data_skip
                0x0001000c       0x18 archival/libunarchive/lib.a(data_skip.o)
                0x0001000c                data_skip
 .text.get_bits
                0x00010024       0xdc archival/libunarchive/lib.a(decompress_bunzip2.o)
 .text.get_next_block
                0x00010100      0x85c archival/libunarchive/lib.a(decompress_bunzip2.o)
 .text.read_bunzip
                0x0001095c      0x168 archival/libunarchive/lib.a(decompress_bunzip2.o)
                0x0001095c                read_bunzip
 .text.start_bunzip
                0x00010ac4       0xe4 archival/libunarchive/lib.a(decompress_bunzip2.o)
                0x00010ac4                start_bunzip
 .text.dealloc_bunzip
                0x00010ba8       0x1c archival/libunarchive/lib.a(decompress_bunzip2.o)
                0x00010ba8                dealloc_bunzip
 .text.uncompress
                0x00010bc4      0x49c archival/libunarchive/lib.a(decompress_uncompress.o)
                0x00010bc4                uncompress
 .text.inflate_codes_setup
                0x00011060       0x50 archival/libunarchive/lib.a(decompress_unzip.o)
 .text.calculate_gunzip_crc
                0x000110b0       0x54 archival/libunarchive/lib.a(decompress_unzip.o)
 .text.huft_free
                0x00011104       0x24 archival/libunarchive/lib.a(decompress_unzip.o)
 .text.alloc_state
                0x00011128       0x28 archival/libunarchive/lib.a(decompress_unzip.o)
 .text.fill_bitbuffer
                0x00011150       0xa4 archival/libunarchive/lib.a(decompress_unzip.o)
 .text.huft_build
                0x000111f4      0x530 archival/libunarchive/lib.a(decompress_unzip.o)
 .text.inflate_block
                0x00011724      0x6b0 archival/libunarchive/lib.a(decompress_unzip.o)
 .text.inflate_unzip_internal
                0x00011dd4      0x558 archival/libunarchive/lib.a(decompress_unzip.o)
 .text.unpack_gz_stream
                0x0001232c      0x118 archival/libunarchive/lib.a(decompress_unzip.o)
                0x0001232c                unpack_gz_stream
 .text.filter_accept_reject_list
                0x00012444       0x54 archival/libunarchive/lib.a(filter_accept_reject_list.o)
                0x00012444                filter_accept_reject_list
 .text.find_list_entry
                0x00012498       0x3c archival/libunarchive/lib.a(find_list_entry.o)
                0x00012498                find_list_entry
 .text.find_list_entry2
                0x000124d4       0xac archival/libunarchive/lib.a(find_list_entry.o)
                0x000124d4                find_list_entry2
 .text.getOctal
                0x00012580       0x48 archival/libunarchive/lib.a(get_header_tar.o)
 .text.get_header_tar
                0x000125c8      0x548 archival/libunarchive/lib.a(get_header_tar.o)
                0x000125c8                get_header_tar
 .text.get_header_tar_gz
                0x00012b10       0x88 archival/libunarchive/lib.a(get_header_tar_gz.o)
                0x00012b10                get_header_tar_gz
 .text.header_list
                0x00012b98        0x8 archival/libunarchive/lib.a(header_list.o)
                0x00012b98                header_list
 .text.header_verbose_list
                0x00012ba0       0xb0 archival/libunarchive/lib.a(header_verbose_list.o)
                0x00012ba0                header_verbose_list
 .text.init_handle
                0x00012c50       0x54 archival/libunarchive/lib.a(init_handle.o)
                0x00012c50                init_handle
 .text.open_transformer
                0x00012ca4       0x64 archival/libunarchive/lib.a(open_transformer.o)
                0x00012ca4                open_transformer
 .text.seek_by_jump
                0x00012d08       0x3c archival/libunarchive/lib.a(seek_by_jump.o)
                0x00012d08                seek_by_jump
 .text.seek_by_read
                0x00012d44       0x18 archival/libunarchive/lib.a(seek_by_read.o)
                0x00012d44                seek_by_read
 .text.data_align
                0x00012d5c       0x64 archival/libunarchive/lib.a(data_align.o)
                0x00012d5c                data_align
 .text.filter_accept_all
                0x00012dc0       0x14 archival/libunarchive/lib.a(filter_accept_all.o)
                0x00012dc0                filter_accept_all
 .text.header_skip
                0x00012dd4        0x4 archival/libunarchive/lib.a(header_skip.o)
                0x00012dd4                header_skip
 .text.clear_main
                0x00012dd8       0x1c console-tools/lib.a(clear.o)
                0x00012dd8                clear_main
 .text.reset_main
                0x00012df4       0x28 console-tools/lib.a(reset.o)
                0x00012df4                reset_main
 .text.basename_main
                0x00012e1c       0x80 coreutils/lib.a(basename.o)
                0x00012e1c                basename_main
 .text.bb_cat   0x00012e9c       0x94 coreutils/lib.a(cat.o)
                0x00012e9c                bb_cat
 .text.cat_main
                0x00012f30       0x30 coreutils/lib.a(cat.o)
                0x00012f30                cat_main
 .text.fileAction
                0x00012f60       0x98 coreutils/lib.a(chmod.o)
 .text.chmod_main
                0x00012ff8       0xec coreutils/lib.a(chmod.o)
                0x00012ff8                chmod_main
 .text.cp_main  0x000130e4      0x148 coreutils/lib.a(cp.o)
                0x000130e4                cp_main
 .text.cmpfunc  0x0001322c       0x10 coreutils/lib.a(cut.o)
 .text.cut_file
                0x0001323c      0x2d0 coreutils/lib.a(cut.o)
 .text.cut_main
                0x0001350c      0x2a8 coreutils/lib.a(cut.o)
                0x0001350c                cut_main
 .text.maybe_set_utc
                0x000137b4       0x14 coreutils/lib.a(date.o)
 .text.date_main
                0x000137c8      0x3b4 coreutils/lib.a(date.o)
                0x000137c8                date_main
 .text.df_main  0x00013b7c      0x2a8 coreutils/lib.a(df.o)
                0x00013b7c                df_main
 .text.dirname_main
                0x00013e24       0x30 coreutils/lib.a(dirname.o)
                0x00013e24                dirname_main
 .text.print    0x00013e54       0x38 coreutils/lib.a(du.o)
 .text.du       0x00013e8c      0x220 coreutils/lib.a(du.o)
 .text.du_main  0x000140ac      0x1a0 coreutils/lib.a(du.o)
                0x000140ac                du_main
 .text.bb_echo  0x0001424c      0x154 coreutils/lib.a(echo.o)
                0x0001424c                bb_echo
 .text.echo_main
                0x000143a0        0x8 coreutils/lib.a(echo.o)
                0x000143a0                echo_main
 .text.env_main
                0x000143a8      0x178 coreutils/lib.a(env.o)
                0x000143a8                env_main
 .text.null     0x00014520       0x44 coreutils/lib.a(expr.o)
 .text.int_value
                0x00014564       0x1c coreutils/lib.a(expr.o)
 .text.tostring
                0x00014580       0x34 coreutils/lib.a(expr.o)
 .text.str_value
                0x000145b4       0x30 coreutils/lib.a(expr.o)
 .text.docolon  0x000145e4       0xf8 coreutils/lib.a(expr.o)
 .text.toarith  0x000146dc       0x64 coreutils/lib.a(expr.o)
 .text.arithmetic_common
                0x00014740       0xac coreutils/lib.a(expr.o)
 .text.freev    0x000147ec       0x28 coreutils/lib.a(expr.o)
 .text.nextarg  0x00014814       0x30 coreutils/lib.a(expr.o)
 .text.eval     0x00014844       0x70 coreutils/lib.a(expr.o)
 .text.eval6    0x000148b4      0x264 coreutils/lib.a(expr.o)
 .text.eval5    0x00014b18       0x6c coreutils/lib.a(expr.o)
 .text.eval4    0x00014b84       0xb4 coreutils/lib.a(expr.o)
 .text.eval3    0x00014c38       0x98 coreutils/lib.a(expr.o)
 .text.eval2    0x00014cd0      0x1c4 coreutils/lib.a(expr.o)
 .text.eval1    0x00014e94       0x90 coreutils/lib.a(expr.o)
 .text.expr_main
                0x00014f24       0x7c coreutils/lib.a(expr.o)
                0x00014f24                expr_main
 .text.false_main
                0x00014fa0        0x8 coreutils/lib.a(false.o)
                0x00014fa0                false_main
 .text.head_main
                0x00014fa8      0x1f4 coreutils/lib.a(head.o)
                0x00014fa8                head_main
 .text.hostid_main
                0x0001519c       0x38 coreutils/lib.a(hostid.o)
                0x0001519c                hostid_main
 .text.printf_full
                0x000151d4       0x3c coreutils/lib.a(id.o)
 .text.id_main  0x00015210      0x178 coreutils/lib.a(id.o)
                0x00015210                id_main
 .text.ln_main  0x00015388      0x228 coreutils/lib.a(ln.o)
                0x00015388                ln_main
 .text.fgcolor  0x000155b0       0x4c coreutils/lib.a(ls.o)
 .text.bgcolor  0x000155fc       0x34 coreutils/lib.a(ls.o)
 .text.append_char
                0x00015630       0x60 coreutils/lib.a(ls.o)
 .text.count_dirs
                0x00015690       0x7c coreutils/lib.a(ls.o)
 .text.sortcmp  0x0001570c       0xb4 coreutils/lib.a(ls.o)
 .text.my_stat  0x000157c0       0xc0 coreutils/lib.a(ls.o)
 .text.dnalloc  0x00015880       0x18 coreutils/lib.a(ls.o)
 .text.splitdnarray
                0x00015898       0xd8 coreutils/lib.a(ls.o)
 .text.showfiles
                0x00015970      0x61c coreutils/lib.a(ls.o)
 .text.dnsort   0x00015f8c       0x10 coreutils/lib.a(ls.o)
 .text.showdirs
                0x00015f9c      0x264 coreutils/lib.a(ls.o)
 .text.ls_main  0x00016200      0x448 coreutils/lib.a(ls.o)
                0x00016200                ls_main
 .text.md5_sha1_sum_main
                0x00016648      0x150 coreutils/lib.a(md5_sha1_sum.o)
                0x00016648                md5_sha1_sum_main
 .text.mkdir_main
                0x00016798       0xb8 coreutils/lib.a(mkdir.o)
                0x00016798                mkdir_main
 .text.mkfifo_main
                0x00016850       0x74 coreutils/lib.a(mkfifo.o)
                0x00016850                mkfifo_main
 .text.mknod_main
                0x000168c4       0xec coreutils/lib.a(mknod.o)
                0x000168c4                mknod_main
 .text.mv_main  0x000169b0      0x24c coreutils/lib.a(mv.o)
                0x000169b0                mv_main
 .text.nice_main
                0x00016bfc      0x110 coreutils/lib.a(nice.o)
                0x00016bfc                nice_main
 .text.printenv_main
                0x00016d0c       0x60 coreutils/lib.a(printenv.o)
                0x00016d0c                printenv_main
 .text.multiconvert
                0x00016d6c       0x80 coreutils/lib.a(printf.o)
 .text.my_xstrtoul
                0x00016dec       0x1c coreutils/lib.a(printf.o)
 .text.my_xstrtol
                0x00016e08       0x1c coreutils/lib.a(printf.o)
 .text.my_xstrtod
                0x00016e24       0x20 coreutils/lib.a(printf.o)
 .text.conv_strtoul
                0x00016e44       0x1c coreutils/lib.a(printf.o)
 .text.print_direc
                0x00016e60      0x278 coreutils/lib.a(printf.o)
 .text.conv_strtol
                0x000170d8       0x1c coreutils/lib.a(printf.o)
 .text.conv_strtod
                0x000170f4       0x38 coreutils/lib.a(printf.o)
 .text.printf_main
                0x0001712c      0x2cc coreutils/lib.a(printf.o)
                0x0001712c                printf_main
 .text.pwd_main
                0x000173f8       0x3c coreutils/lib.a(pwd.o)
                0x000173f8                pwd_main
 .text.rm_main  0x00017434       0xe8 coreutils/lib.a(rm.o)
                0x00017434                rm_main
 .text.rmdir_main
                0x0001751c       0xc0 coreutils/lib.a(rmdir.o)
                0x0001751c                rmdir_main
 .text.sleep_main
                0x000175dc       0x54 coreutils/lib.a(sleep.o)
                0x000175dc                sleep_main
 .text.eat_num  0x00017630       0x34 coreutils/lib.a(tail.o)
 .text.tail_xprint_header
                0x00017664       0x24 coreutils/lib.a(tail.o)
 .text.tail_read
                0x00017688       0xc0 coreutils/lib.a(tail.o)
 .text.tail_main
                0x00017748      0x4f4 coreutils/lib.a(tail.o)
                0x00017748                tail_main
 .text.t_lex    0x00017c3c       0x6c coreutils/lib.a(test.o)
 .text.syntax   0x00017ca8       0x4c coreutils/lib.a(test.o)
 .text.getn     0x00017cf4       0x70 coreutils/lib.a(test.o)
 .text.binop    0x00017d64      0x244 coreutils/lib.a(test.o)
 .text.nexpr    0x00017fa8      0x3e8 coreutils/lib.a(test.o)
 .text.aexpr    0x00018390       0x64 coreutils/lib.a(test.o)
 .text.oexpr    0x000183f4       0x64 coreutils/lib.a(test.o)
 .text.test_main
                0x00018458      0x238 coreutils/lib.a(test.o)
                0x00018458                test_main
 .text.touch_main
                0x00018690       0xc4 coreutils/lib.a(touch.o)
                0x00018690                touch_main
 .text.expand   0x00018754      0x2bc coreutils/lib.a(tr.o)
 .text.complement.clone.0
                0x00018a10       0x74 coreutils/lib.a(tr.o)
 .text.tr_main  0x00018a84      0x294 coreutils/lib.a(tr.o)
                0x00018a84                tr_main
 .text.true_main
                0x00018d18        0x8 coreutils/lib.a(true.o)
                0x00018d18                true_main
 .text.uname_main
                0x00018d20       0xdc coreutils/lib.a(uname.o)
                0x00018d20                uname_main
 .text.usleep_main
                0x00018dfc       0x28 coreutils/lib.a(usleep.o)
                0x00018dfc                usleep_main
 .text.wc_main  0x00018e24      0x2e8 coreutils/lib.a(wc.o)
                0x00018e24                wc_main
 .text.yes_main
                0x0001910c       0x70 coreutils/lib.a(yes.o)
                0x0001910c                yes_main
 .text.cp_mv_stat2
                0x0001917c       0x68 coreutils/libcoreutils/lib.a(cp_mv_stat.o)
                0x0001917c                cp_mv_stat2
 .text.cp_mv_stat
                0x000191e4        0xc coreutils/libcoreutils/lib.a(cp_mv_stat.o)
                0x000191e4                cp_mv_stat
 .text.getopt_mk_fifo_nod
                0x000191f0       0x58 coreutils/libcoreutils/lib.a(getopt_mk_fifo_nod.o)
                0x000191f0                getopt_mk_fifo_nod
 .text.hashidx  0x00019248       0x28 editors/lib.a(awk.o)
 .text.skip_spaces
                0x00019270       0x5c editors/lib.a(awk.o)
 .text.nextword
                0x000192cc       0x20 editors/lib.a(awk.o)
 .text.rollback_token
                0x000192ec       0x18 editors/lib.a(awk.o)
 .text.nextarg  0x00019304       0x38 editors/lib.a(awk.o)
 .text.hash_init
                0x0001933c       0x2c editors/lib.a(awk.o)
 .text.iamarray
                0x00019368       0x3c editors/lib.a(awk.o)
 .text.new_node
                0x000193a4       0x2c editors/lib.a(awk.o)
 .text.nvalloc  0x000193d0       0xd8 editors/lib.a(awk.o)
 .text.qrealloc
                0x000194a8       0x38 editors/lib.a(awk.o)
 .text.clrvar   0x000194e0       0x40 editors/lib.a(awk.o)
 .text.fsrealloc
                0x00019520       0xb0 editors/lib.a(awk.o)
 .text.clear_array
                0x000195d0       0x68 editors/lib.a(awk.o)
 .text.zero_out_var
                0x00019638        0xc editors/lib.a(awk.o)
 .text.chain_node
                0x00019644       0x84 editors/lib.a(awk.o)
 .text.mk_re_node
                0x000196c8       0x48 editors/lib.a(awk.o)
 .text.mk_splitter
                0x00019710       0x60 editors/lib.a(awk.o)
 .text.getvar_i
                0x00019770       0xa4 editors/lib.a(awk.o)
 .text.is_numeric
                0x00019814       0x20 editors/lib.a(awk.o)
 .text.istrue   0x00019834       0x58 editors/lib.a(awk.o)
 .text.hash_search
                0x0001988c       0x50 editors/lib.a(awk.o)
 .text.hash_find
                0x000198dc      0x118 editors/lib.a(awk.o)
 .text.hash_remove
                0x000199f4       0x88 editors/lib.a(awk.o)
 .text.nextchar
                0x00019a7c       0x44 editors/lib.a(awk.o)
 .text.syntax_error
                0x00019ac0       0x28 editors/lib.a(awk.o)
 .text.fmt_num  0x00019ae8      0x108 editors/lib.a(awk.o)
 .text.getvar_s
                0x00019bf0       0x88 editors/lib.a(awk.o)
 .text.handle_special
                0x00019c78      0x1b8 editors/lib.a(awk.o)
 .text.setvar_p
                0x00019e30       0x24 editors/lib.a(awk.o)
 .text.setvar_s
                0x00019e54       0x30 editors/lib.a(awk.o)
 .text.setvar_u
                0x00019e84       0x20 editors/lib.a(awk.o)
 .text.is_assignment
                0x00019ea4       0xc8 editors/lib.a(awk.o)
 .text.setari_u
                0x00019f6c       0x44 editors/lib.a(awk.o)
 .text.setvar_i
                0x00019fb0       0x34 editors/lib.a(awk.o)
 .text.incvar   0x00019fe4       0x30 editors/lib.a(awk.o)
 .text.awk_getline
                0x0001a014      0x2d8 editors/lib.a(awk.o)
 .text.copyvar  0x0001a2ec       0x5c editors/lib.a(awk.o)
 .text.awk_split
                0x0001a348      0x294 editors/lib.a(awk.o)
 .text.split_f0
                0x0001a5dc       0xc0 editors/lib.a(awk.o)
 .text.next_token
                0x0001a69c      0x48c editors/lib.a(awk.o)
 .text.parse_expr
                0x0001ab28      0x334 editors/lib.a(awk.o)
 .text.condition
                0x0001ae5c       0x18 editors/lib.a(awk.o)
 .text.chain_expr
                0x0001ae74       0x38 editors/lib.a(awk.o)
 .text.chain_group
                0x0001aeac      0x2bc editors/lib.a(awk.o)
 .text.parse_program
                0x0001b168      0x164 editors/lib.a(awk.o)
 .text.chain_loop
                0x0001b2cc       0x88 editors/lib.a(awk.o)
 .text.nvfree   0x0001b354       0xd8 editors/lib.a(awk.o)
 .text.afopen.clone.0
                0x0001b42c       0x34 editors/lib.a(awk.o)
 .text.next_input_file
                0x0001b460      0x128 editors/lib.a(awk.o)
 .text.evaluate
                0x0001b588     0x17d0 editors/lib.a(awk.o)
 .text.awk_exit
                0x0001cd58       0xa0 editors/lib.a(awk.o)
 .text.as_regex
                0x0001cdf8       0x88 editors/lib.a(awk.o)
 .text.awk_sub  0x0001ce80      0x28c editors/lib.a(awk.o)
 .text.awk_printf
                0x0001d10c      0x210 editors/lib.a(awk.o)
 .text.ptest    0x0001d31c       0x20 editors/lib.a(awk.o)
 .text.awk_main
                0x0001d33c      0x4dc editors/lib.a(awk.o)
                0x0001d33c                awk_main
 .text.parse_escapes
                0x0001d818       0x78 editors/lib.a(sed.o)
 .text.index_of_next_unescaped_regexp_delim
                0x0001d890       0xb8 editors/lib.a(sed.o)
 .text.copy_parsing_escapes
                0x0001d948       0x38 editors/lib.a(sed.o)
 .text.parse_regex_delim
                0x0001d980       0x80 editors/lib.a(sed.o)
 .text.get_address
                0x0001da00       0xe8 editors/lib.a(sed.o)
 .text.add_input_file
                0x0001dae8       0x3c editors/lib.a(sed.o)
 .text.pipe_putc
                0x0001db24       0x54 editors/lib.a(sed.o)
 .text.append   0x0001db78       0x1c editors/lib.a(sed.o)
 .text.puts_maybe_newline
                0x0001db94       0xac editors/lib.a(sed.o)
 .text.flush_append
                0x0001dc40       0x44 editors/lib.a(sed.o)
 .text.get_next_line
                0x0001dc84       0xc8 editors/lib.a(sed.o)
 .text.cleanup_outname
                0x0001dd4c       0x18 editors/lib.a(sed.o)
 .text.parse_file_cmd.clone.0
                0x0001dd64       0x9c editors/lib.a(sed.o)
 .text.add_cmd  0x0001de00      0x5b0 editors/lib.a(sed.o)
 .text.add_cmd_block
                0x0001e3b0       0x8c editors/lib.a(sed.o)
 .text.process_files
                0x0001e43c      0xa44 editors/lib.a(sed.o)
 .text.sed_main
                0x0001ee80      0x300 editors/lib.a(sed.o)
                0x0001ee80                sed_main
 .text.next_tabstop
                0x0001f180       0x24 editors/lib.a(vi.o)
 .text.begin_line
                0x0001f1a4       0x30 editors/lib.a(vi.o)
 .text.end_line
                0x0001f1d4       0x34 editors/lib.a(vi.o)
 .text.prev_line
                0x0001f208       0x38 editors/lib.a(vi.o)
 .text.next_line
                0x0001f240       0x34 editors/lib.a(vi.o)
 .text.end_screen
                0x0001f274       0x40 editors/lib.a(vi.o)
 .text.count_lines
                0x0001f2b4       0x60 editors/lib.a(vi.o)
 .text.find_line
                0x0001f314       0x30 editors/lib.a(vi.o)
 .text.dot_left
                0x0001f344       0x30 editors/lib.a(vi.o)
 .text.dot_right
                0x0001f374       0x34 editors/lib.a(vi.o)
 .text.dot_begin
                0x0001f3a8       0x20 editors/lib.a(vi.o)
 .text.dot_end  0x0001f3c8       0x20 editors/lib.a(vi.o)
 .text.move_to_col
                0x0001f3e8       0x74 editors/lib.a(vi.o)
 .text.dot_next
                0x0001f45c       0x20 editors/lib.a(vi.o)
 .text.dot_prev
                0x0001f47c       0x20 editors/lib.a(vi.o)
 .text.find_pair
                0x0001f49c       0xc0 editors/lib.a(vi.o)
 .text.end_cmd_q
                0x0001f55c       0x28 editors/lib.a(vi.o)
 .text.what_reg
                0x0001f584       0x40 editors/lib.a(vi.o)
 .text.screen_erase
                0x0001f5c4       0x20 editors/lib.a(vi.o)
 .text.show_help
                0x0001f5e4        0xc editors/lib.a(vi.o)
 .text.new_screen
                0x0001f5f0       0x78 editors/lib.a(vi.o)
 .text.rawmode  0x0001f668       0x98 editors/lib.a(vi.o)
 .text.file_size
                0x0001f700       0x3c editors/lib.a(vi.o)
 .text.psbs     0x0001f73c       0x70 editors/lib.a(vi.o)
 .text.text_hole_delete
                0x0001f7ac       0xc0 editors/lib.a(vi.o)
 .text.text_hole_make
                0x0001f86c       0x98 editors/lib.a(vi.o)
 .text.stupid_insert
                0x0001f904       0x34 editors/lib.a(vi.o)
 .text.ni       0x0001f938      0x124 editors/lib.a(vi.o)
 .text.psb      0x0001fa5c       0x40 editors/lib.a(vi.o)
 .text.write1   0x0001fa9c       0x10 editors/lib.a(vi.o)
 .text.standout_start
                0x0001faac        0xc editors/lib.a(vi.o)
 .text.standout_end
                0x0001fab8        0xc editors/lib.a(vi.o)
 .text.clear_to_eos
                0x0001fac4        0xc editors/lib.a(vi.o)
 .text.clear_to_eol
                0x0001fad0        0xc editors/lib.a(vi.o)
 .text.file_insert
                0x0001fadc      0x1c0 editors/lib.a(vi.o)
 .text.catch_sig
                0x0001fc9c       0x38 editors/lib.a(vi.o)
 .text.dot_skip_over_ws
                0x0001fcd4       0x50 editors/lib.a(vi.o)
 .text.dot_scroll
                0x0001fd24       0x84 editors/lib.a(vi.o)
 .text.setops   0x0001fda8       0x74 editors/lib.a(vi.o)
 .text.mycmp    0x0001fe1c       0x3c editors/lib.a(vi.o)
 .text.char_search
                0x0001fe58       0xdc editors/lib.a(vi.o)
 .text.get_one_address
                0x0001ff34      0x1a4 editors/lib.a(vi.o)
 .text.string_insert
                0x000200d8       0x7c editors/lib.a(vi.o)
 .text.text_yank
                0x00020154       0x70 editors/lib.a(vi.o)
 .text.yank_delete
                0x000201c4       0x9c editors/lib.a(vi.o)
 .text.file_write
                0x00020260       0x6c editors/lib.a(vi.o)
 .text.cookmode
                0x000202cc       0x34 editors/lib.a(vi.o)
 .text.readit   0x00020300      0x204 editors/lib.a(vi.o)
 .text.get_one_char
                0x00020504       0xc0 editors/lib.a(vi.o)
 .text.mysleep  0x000205c4       0x78 editors/lib.a(vi.o)
 .text.skip_thing
                0x0002063c      0x120 editors/lib.a(vi.o)
 .text.place_cursor
                0x0002075c      0x144 editors/lib.a(vi.o)
 .text.suspend_sig
                0x000208a0       0x5c editors/lib.a(vi.o)
 .text.refresh  0x000208fc      0x588 editors/lib.a(vi.o)
 .text.get_input_line
                0x00020e84      0x140 editors/lib.a(vi.o)
 .text.redraw   0x00020fc4       0x40 editors/lib.a(vi.o)
 .text.Hit_Return
                0x00021004       0x38 editors/lib.a(vi.o)
 .text.show_status_line
                0x0002103c      0x294 editors/lib.a(vi.o)
 .text.winch_sig
                0x000212d0       0x4c editors/lib.a(vi.o)
 .text.cont_sig
                0x0002131c       0x54 editors/lib.a(vi.o)
 .text.Indicate_Error
                0x00021370       0x4c editors/lib.a(vi.o)
 .text.bound_dot
                0x000213bc       0x50 editors/lib.a(vi.o)
 .text.char_insert
                0x0002140c      0x1f4 editors/lib.a(vi.o)
 .text.init_text_buffer
                0x00021600       0xe0 editors/lib.a(vi.o)
 .text.colon    0x000216e0      0xf10 editors/lib.a(vi.o)
 .text.do_cmd   0x000225f0     0x1828 editors/lib.a(vi.o)
 .text.find_range
                0x00023e18      0x204 editors/lib.a(vi.o)
 .text.edit_file
                0x0002401c      0x354 editors/lib.a(vi.o)
 .text.vi_main  0x00024370      0x1ac editors/lib.a(vi.o)
                0x00024370                vi_main
 .text.exec_actions
                0x0002451c       0x74 findutils/lib.a(find.o)
 .text.func_type
                0x00024590       0x1c findutils/lib.a(find.o)
 .text.func_perm
                0x000245ac       0x5c findutils/lib.a(find.o)
 .text.func_newer
                0x00024608       0x18 findutils/lib.a(find.o)
 .text.func_inum
                0x00024620       0x20 findutils/lib.a(find.o)
 .text.func_user
                0x00024640       0x18 findutils/lib.a(find.o)
 .text.func_group
                0x00024658       0x18 findutils/lib.a(find.o)
 .text.func_paren
                0x00024670       0x18 findutils/lib.a(find.o)
 .text.func_size
                0x00024688       0x90 findutils/lib.a(find.o)
 .text.func_prune
                0x00024718        0x8 findutils/lib.a(find.o)
 .text.plus_minus_num
                0x00024720       0x14 findutils/lib.a(find.o)
 .text.alloc_action.7040
                0x00024734       0x74 findutils/lib.a(find.o)
 .text.parse_params
                0x000247a8      0x6a4 findutils/lib.a(find.o)
 .text.func_mmin
                0x00024e4c       0x84 findutils/lib.a(find.o)
 .text.func_mtime
                0x00024ed0       0x94 findutils/lib.a(find.o)
 .text.func_regex
                0x00024f64       0x5c findutils/lib.a(find.o)
 .text.func_path
                0x00024fc0       0x20 findutils/lib.a(find.o)
 .text.func_name
                0x00024fe0       0x64 findutils/lib.a(find.o)
 .text.func_exec
                0x00025044      0x144 findutils/lib.a(find.o)
 .text.func_delete
                0x00025188       0x44 findutils/lib.a(find.o)
 .text.func_print0
                0x000251cc       0x20 findutils/lib.a(find.o)
 .text.func_print
                0x000251ec       0x10 findutils/lib.a(find.o)
 .text.fileAction
                0x000251fc       0xe0 findutils/lib.a(find.o)
 .text.find_main
                0x000252dc      0x1f4 findutils/lib.a(find.o)
                0x000252dc                find_main
 .text.add_grep_list_data
                0x000254d0       0x20 findutils/lib.a(grep.o)
 .text.print_line
                0x000254f0      0x108 findutils/lib.a(grep.o)
 .text.grep_file
                0x000255f8      0x3b0 findutils/lib.a(grep.o)
 .text.file_action_grep
                0x000259a8       0x8c findutils/lib.a(grep.o)
 .text.grep_main
                0x00025a34      0x468 findutils/lib.a(grep.o)
                0x00025a34                grep_main
 .text.xargs_main
                0x00025e9c      0x4c8 findutils/lib.a(xargs.o)
                0x00025e9c                xargs_main
 .text.halt_main
                0x00026364       0x9c init/lib.a(halt.o)
                0x00026364                halt_main
 .text.bb_ask_confirmation
                0x00026400       0x6c libbb/lib.a(ask_confirmation.o)
                0x00026400                bb_ask_confirmation
 .text.bb_basename
                0x0002646c       0x20 libbb/lib.a(bb_basename.o)
                0x0002646c                bb_basename
 .text.bb_getug
                0x0002648c       0x6c libbb/lib.a(bb_pwd.o)
 .text.bb_getpwuid
                0x000264f8       0x3c libbb/lib.a(bb_pwd.o)
                0x000264f8                bb_getpwuid
 .text.bb_getgrgid
                0x00026534       0x3c libbb/lib.a(bb_pwd.o)
                0x00026534                bb_getgrgid
 .text.xgroup2gid
                0x00026570       0x2c libbb/lib.a(bb_pwd.o)
                0x00026570                xgroup2gid
 .text.xuname2uid
                0x0002659c       0x2c libbb/lib.a(bb_pwd.o)
                0x0002659c                xuname2uid
 .text.ret_ERANGE
                0x000265c8       0x20 libbb/lib.a(bb_strtonum.o)
 .text.handle_errors
                0x000265e8       0x6c libbb/lib.a(bb_strtonum.o)
 .text.bb_strtoul
                0x00026654       0x60 libbb/lib.a(bb_strtonum.o)
                0x00026654                bb_strtoul
 .text.bb_strtol
                0x000266b4       0x68 libbb/lib.a(bb_strtonum.o)
                0x000266b4                bb_strtol
 .text.index_in_strings
                0x0002671c       0x54 libbb/lib.a(compare_string_array.o)
                0x0002671c                index_in_strings
 .text.index_in_substrings
                0x00026770       0x68 libbb/lib.a(compare_string_array.o)
                0x00026770                index_in_substrings
 .text.concat_path_file
                0x000267d8       0x60 libbb/lib.a(concat_path_file.o)
                0x000267d8                concat_path_file
 .text.concat_subpath_file
                0x00026838       0x44 libbb/lib.a(concat_subpath_file.o)
                0x00026838                concat_subpath_file
 .text.ask_and_unlink
                0x0002687c       0x74 libbb/lib.a(copy_file.o)
 .text.copy_file
                0x000268f0      0x614 libbb/lib.a(copy_file.o)
                0x000268f0                copy_file
 .text.bb_full_fd_action
                0x00026f04      0x100 libbb/lib.a(copyfd.o)
 .text.bb_copyfd_size
                0x00027004       0x18 libbb/lib.a(copyfd.o)
                0x00027004                bb_copyfd_size
 .text.bb_copyfd_exact_size
                0x0002701c       0x40 libbb/lib.a(copyfd.o)
                0x0002701c                bb_copyfd_exact_size
 .text.bb_copyfd_eof
                0x0002705c        0xc libbb/lib.a(copyfd.o)
                0x0002705c                bb_copyfd_eof
 .text.crc32_filltable
                0x00027068       0x8c libbb/lib.a(crc32.o)
                0x00027068                crc32_filltable
 .text.bb_error_msg
                0x000270f4       0x28 libbb/lib.a(error_msg.o)
                0x000270f4                bb_error_msg
 .text.xfunc_die
                0x0002711c       0x2c libbb/lib.a(error_msg_and_die.o)
                0x0002711c                xfunc_die
 .text.bb_error_msg_and_die
                0x00027148       0x20 libbb/lib.a(error_msg_and_die.o)
                0x00027148                bb_error_msg_and_die
 .text.fclose_if_not_stdin
                0x00027168       0x20 libbb/lib.a(fclose_nonstdin.o)
                0x00027168                fclose_if_not_stdin
 .text.fflush_stdout_and_exit
                0x00027188       0x34 libbb/lib.a(fflush_stdout_and_exit.o)
                0x00027188                fflush_stdout_and_exit
 .text.find_mount_point
                0x000271bc      0x11c libbb/lib.a(find_mount_point.o)
                0x000271bc                find_mount_point
 .text.find_block_device_in_dir
                0x000272d8      0x110 libbb/lib.a(find_root_device.o)
 .text.find_block_device
                0x000273e8       0x7c libbb/lib.a(find_root_device.o)
                0x000273e8                find_block_device
 .text.full_write
                0x00027464       0x4c libbb/lib.a(full_write.o)
                0x00027464                full_write
 .text.bb_get_last_path_component
                0x000274b0       0x48 libbb/lib.a(get_last_path_component.o)
                0x000274b0                bb_get_last_path_component
 .text.bb_get_chunk_from_file
                0x000274f8       0xa8 libbb/lib.a(get_line_from_file.o)
                0x000274f8                bb_get_chunk_from_file
 .text.xmalloc_fgets
                0x000275a0       0x10 libbb/lib.a(get_line_from_file.o)
                0x000275a0                xmalloc_fgets
 .text.xmalloc_getline
                0x000275b0       0x34 libbb/lib.a(get_line_from_file.o)
                0x000275b0                xmalloc_getline
 .text.getopt32
                0x000275e4      0x618 libbb/lib.a(getopt32.o)
                0x000275e4                getopt32
 .text.make_human_readable_str
                0x00027bfc      0x114 libbb/lib.a(human_readable.o)
                0x00027bfc                make_human_readable_str
 .text.is_in_ino_dev_hashtable
                0x00027d10       0x90 libbb/lib.a(inode_hash.o)
                0x00027d10                is_in_ino_dev_hashtable
 .text.add_to_ino_dev_hashtable
                0x00027da0       0x98 libbb/lib.a(inode_hash.o)
                0x00027da0                add_to_ino_dev_hashtable
 .text.is_directory
                0x00027e38       0x54 libbb/lib.a(isdirectory.o)
                0x00027e38                is_directory
 .text.last_char_is
                0x00027e8c       0x3c libbb/lib.a(last_char_is.o)
                0x00027e8c                last_char_is
 .text.llist_add_to
                0x00027ec8       0x28 libbb/lib.a(llist.o)
                0x00027ec8                llist_add_to
 .text.llist_add_to_end
                0x00027ef0       0x4c libbb/lib.a(llist.o)
                0x00027ef0                llist_add_to_end
 .text.llist_pop
                0x00027f3c       0x2c libbb/lib.a(llist.o)
                0x00027f3c                llist_pop
 .text.bb_make_directory
                0x00027f68      0x17c libbb/lib.a(make_directory.o)
                0x00027f68                bb_make_directory
 .text.bb_makedev
                0x000280e4       0x50 libbb/lib.a(makedev.o)
                0x000280e4                bb_makedev
 .text.md5_hash_block
                0x00028134      0x260 libbb/lib.a(md5.o)
 .text.md5_begin
                0x00028394       0x48 libbb/lib.a(md5.o)
                0x00028394                md5_begin
 .text.md5_hash
                0x000283dc       0x84 libbb/lib.a(md5.o)
                0x000283dc                md5_hash
 .text.md5_end  0x00028460       0xd0 libbb/lib.a(md5.o)
                0x00028460                md5_end
 .text.bb_mode_string
                0x00028530       0xa4 libbb/lib.a(mode_string.o)
                0x00028530                bb_mode_string
 .text.bb_parse_mode
                0x000285d4      0x254 libbb/lib.a(parse_mode.o)
                0x000285d4                bb_parse_mode
 .text.bb_perror_msg
                0x00028828       0x48 libbb/lib.a(perror_msg.o)
                0x00028828                bb_perror_msg
 .text.bb_perror_msg_and_die
                0x00028870       0x40 libbb/lib.a(perror_msg_and_die.o)
                0x00028870                bb_perror_msg_and_die
 .text.bb_perror_nomsg_and_die
                0x000288b0        0x8 libbb/lib.a(perror_nomsg_and_die.o)
                0x000288b0                bb_perror_nomsg_and_die
 .text.bb_process_escape_sequence
                0x000288b8       0xdc libbb/lib.a(process_escape_sequence.o)
                0x000288b8                bb_process_escape_sequence
 .text.fast_strtoul_10
                0x00028994       0x40 libbb/lib.a(procps.o)
 .text.skip_fields
                0x000289d4       0x24 libbb/lib.a(procps.o)
 .text.clear_cache
                0x000289f8       0x20 libbb/lib.a(procps.o)
 .text.read_to_buf
                0x00028a18       0x48 libbb/lib.a(procps.o)
 .text.get_cached
                0x00028a60       0x88 libbb/lib.a(procps.o)
 .text.clear_username_cache
                0x00028ae8       0x20 libbb/lib.a(procps.o)
                0x00028ae8                clear_username_cache
 .text.get_cached_username
                0x00028b08       0x18 libbb/lib.a(procps.o)
                0x00028b08                get_cached_username
 .text.get_cached_groupname
                0x00028b20       0x18 libbb/lib.a(procps.o)
                0x00028b20                get_cached_groupname
 .text.alloc_procps_scan
                0x00028b38       0x28 libbb/lib.a(procps.o)
                0x00028b38                alloc_procps_scan
 .text.free_procps_scan
                0x00028b60       0x24 libbb/lib.a(procps.o)
                0x00028b60                free_procps_scan
 .text.procps_scan
                0x00028b84      0x2d0 libbb/lib.a(procps.o)
                0x00028b84                procps_scan
 .text.read_cmdline
                0x00028e54       0x8c libbb/lib.a(procps.o)
                0x00028e54                read_cmdline
 .text.safe_read
                0x00028ee0       0x44 libbb/lib.a(read.o)
                0x00028ee0                safe_read
 .text.full_read
                0x00028f24       0x58 libbb/lib.a(read.o)
                0x00028f24                full_read
 .text.xread    0x00028f7c       0x24 libbb/lib.a(read.o)
                0x00028f7c                xread
 .text.xread_char
                0x00028fa0       0x18 libbb/lib.a(read.o)
                0x00028fa0                xread_char
 .text.read_close
                0x00028fb8       0x20 libbb/lib.a(read.o)
                0x00028fb8                read_close
 .text.open_read_close
                0x00028fd8       0x2c libbb/lib.a(read.o)
                0x00028fd8                open_read_close
 .text.xmalloc_open_read_close
                0x00029004       0xcc libbb/lib.a(read.o)
                0x00029004                xmalloc_open_read_close
 .text.true_action
                0x000290d0        0x8 libbb/lib.a(recursive_action.o)
 .text.recursive_action
                0x000290d8      0x1c4 libbb/lib.a(recursive_action.o)
                0x000290d8                recursive_action
 .text.remove_file
                0x0002929c      0x23c libbb/lib.a(remove_file.o)
                0x0002929c                remove_file
 .text.safe_strncpy
                0x000294d8       0x18 libbb/lib.a(safe_strncpy.o)
                0x000294d8                safe_strncpy
 .text.safe_write
                0x000294f0       0x44 libbb/lib.a(safe_write.o)
                0x000294f0                safe_write
 .text.skip_whitespace
                0x00029534       0x24 libbb/lib.a(skip_whitespace.o)
                0x00029534                skip_whitespace
 .text.bb_verror_msg
                0x00029558      0x190 libbb/lib.a(verror_msg.o)
                0x00029558                bb_verror_msg
 .text.spawn    0x000296e8       0x70 libbb/lib.a(vfork_daemon_rexec.o)
                0x000296e8                spawn
 .text.wait4pid
                0x00029758       0x4c libbb/lib.a(vfork_daemon_rexec.o)
                0x00029758                wait4pid
 .text.spawn_and_wait
                0x000297a4       0x10 libbb/lib.a(vfork_daemon_rexec.o)
                0x000297a4                spawn_and_wait
 .text.forkexit_or_rexec
                0x000297b4       0x28 libbb/lib.a(vfork_daemon_rexec.o)
                0x000297b4                forkexit_or_rexec
 .text.bb_daemonize_or_rexec
                0x000297dc       0xc4 libbb/lib.a(vfork_daemon_rexec.o)
                0x000297dc                bb_daemonize_or_rexec
 .text.fopen_or_warn
                0x000298a0       0x3c libbb/lib.a(wfopen.o)
                0x000298a0                fopen_or_warn
 .text.fopen_or_warn_stdin
                0x000298dc       0x50 libbb/lib.a(wfopen_input.o)
                0x000298dc                fopen_or_warn_stdin
 .text.xstrtoull_range_sfx
                0x0002992c      0x188 libbb/lib.a(xatonum.o)
                0x0002992c                xstrtoull_range_sfx
 .text.xatoull_sfx
                0x00029ab4       0x2c libbb/lib.a(xatonum.o)
                0x00029ab4                xatoull_sfx
 .text.xstrtoul_range_sfx
                0x00029ae0      0x12c libbb/lib.a(xatonum.o)
                0x00029ae0                xstrtoul_range_sfx
 .text.xstrtoul
                0x00029c0c       0x18 libbb/lib.a(xatonum.o)
                0x00029c0c                xstrtoul
 .text.xatoul_range_sfx
                0x00029c24       0x24 libbb/lib.a(xatonum.o)
                0x00029c24                xatoul_range_sfx
 .text.xatoul_range
                0x00029c48       0x24 libbb/lib.a(xatonum.o)
                0x00029c48                xatoul_range
 .text.xatoul_sfx
                0x00029c6c       0x1c libbb/lib.a(xatonum.o)
                0x00029c6c                xatoul_sfx
 .text.xatoul   0x00029c88        0x8 libbb/lib.a(xatonum.o)
                0x00029c88                xatoul
 .text.xstrtol_range_sfx
                0x00029c90       0x84 libbb/lib.a(xatonum.o)
                0x00029c90                xstrtol_range_sfx
 .text.xatol_range
                0x00029d14       0x24 libbb/lib.a(xatonum.o)
                0x00029d14                xatol_range
 .text.xatoi_u  0x00029d38        0xc libbb/lib.a(xatonum.o)
                0x00029d38                xatoi_u
 .text.xatou16  0x00029d44       0x18 libbb/lib.a(xatonum.o)
                0x00029d44                xatou16
 .text.malloc_or_warn
                0x00029d5c       0x3c libbb/lib.a(xfuncs.o)
                0x00029d5c                malloc_or_warn
 .text.xmalloc  0x00029d98       0x30 libbb/lib.a(xfuncs.o)
                0x00029d98                xmalloc
 .text.xrealloc
                0x00029dc8       0x30 libbb/lib.a(xfuncs.o)
                0x00029dc8                xrealloc
 .text.xzalloc  0x00029df8       0x24 libbb/lib.a(xfuncs.o)
                0x00029df8                xzalloc
 .text.xstrdup  0x00029e1c       0x2c libbb/lib.a(xfuncs.o)
                0x00029e1c                xstrdup
 .text.xstrndup
                0x00029e48       0x50 libbb/lib.a(xfuncs.o)
                0x00029e48                xstrndup
 .text.xfopen   0x00029e98       0x24 libbb/lib.a(xfuncs.o)
                0x00029e98                xfopen
 .text.xopen3   0x00029ebc       0x24 libbb/lib.a(xfuncs.o)
                0x00029ebc                xopen3
 .text.xopen    0x00029ee0        0x8 libbb/lib.a(xfuncs.o)
                0x00029ee0                xopen
 .text.open3_or_warn
                0x00029ee8       0x2c libbb/lib.a(xfuncs.o)
                0x00029ee8                open3_or_warn
 .text.open_or_warn
                0x00029f14        0x8 libbb/lib.a(xfuncs.o)
                0x00029f14                open_or_warn
 .text.xpipe    0x00029f1c       0x1c libbb/lib.a(xfuncs.o)
                0x00029f1c                xpipe
 .text.xunlink  0x00029f38       0x24 libbb/lib.a(xfuncs.o)
                0x00029f38                xunlink
 .text.ndelay_on
                0x00029f5c       0x24 libbb/lib.a(xfuncs.o)
                0x00029f5c                ndelay_on
 .text.ndelay_off
                0x00029f80       0x24 libbb/lib.a(xfuncs.o)
                0x00029f80                ndelay_off
 .text.xdup2    0x00029fa4       0x20 libbb/lib.a(xfuncs.o)
                0x00029fa4                xdup2
 .text.xmove_fd
                0x00029fc4       0x20 libbb/lib.a(xfuncs.o)
                0x00029fc4                xmove_fd
 .text.xwrite   0x00029fe4       0x24 libbb/lib.a(xfuncs.o)
                0x00029fe4                xwrite
 .text.xlseek   0x0002a008       0x54 libbb/lib.a(xfuncs.o)
                0x0002a008                xlseek
 .text.die_if_ferror
                0x0002a05c       0x24 libbb/lib.a(xfuncs.o)
                0x0002a05c                die_if_ferror
 .text.die_if_ferror_stdout
                0x0002a080       0x18 libbb/lib.a(xfuncs.o)
                0x0002a080                die_if_ferror_stdout
 .text.xsetenv  0x0002a098       0x20 libbb/lib.a(xfuncs.o)
                0x0002a098                xsetenv
 .text.utoa_to_buf
                0x0002a0b8       0x84 libbb/lib.a(xfuncs.o)
                0x0002a0b8                utoa_to_buf
 .text.itoa_to_buf
                0x0002a13c       0x28 libbb/lib.a(xfuncs.o)
                0x0002a13c                itoa_to_buf
 .text.itoa     0x0002a164       0x28 libbb/lib.a(xfuncs.o)
                0x0002a164                itoa
 .text.bin2hex  0x0002a18c       0x50 libbb/lib.a(xfuncs.o)
                0x0002a18c                bin2hex
 .text.xsetgid  0x0002a1dc       0x1c libbb/lib.a(xfuncs.o)
                0x0002a1dc                xsetgid
 .text.xsetuid  0x0002a1f8       0x1c libbb/lib.a(xfuncs.o)
                0x0002a1f8                xsetuid
 .text.xasprintf
                0x0002a214       0x40 libbb/lib.a(xfuncs.o)
                0x0002a214                xasprintf
 .text.xprint_and_close_file
                0x0002a254       0x48 libbb/lib.a(xfuncs.o)
                0x0002a254                xprint_and_close_file
 .text.xchdir   0x0002a29c       0x24 libbb/lib.a(xfuncs.o)
                0x0002a29c                xchdir
 .text.warn_opendir
                0x0002a2c0       0x2c libbb/lib.a(xfuncs.o)
                0x0002a2c0                warn_opendir
 .text.xopendir
                0x0002a2ec       0x24 libbb/lib.a(xfuncs.o)
                0x0002a2ec                xopendir
 .text.xsocket  0x0002a310       0x1c libbb/lib.a(xfuncs.o)
                0x0002a310                xsocket
 .text.xbind    0x0002a32c       0x1c libbb/lib.a(xfuncs.o)
                0x0002a32c                xbind
 .text.xlisten  0x0002a348       0x1c libbb/lib.a(xfuncs.o)
                0x0002a348                xlisten
 .text.xsendto  0x0002a364       0x30 libbb/lib.a(xfuncs.o)
                0x0002a364                xsendto
 .text.xstat    0x0002a394       0x24 libbb/lib.a(xfuncs.o)
                0x0002a394                xstat
 .text.get_terminal_width_height
                0x0002a3b8       0xd8 libbb/lib.a(xfuncs.o)
                0x0002a3b8                get_terminal_width_height
 .text.ioctl_or_perror_and_die
                0x0002a490       0x50 libbb/lib.a(xfuncs.o)
                0x0002a490                ioctl_or_perror_and_die
 .text.bb_ioctl_or_warn
                0x0002a4e0       0x2c libbb/lib.a(xfuncs.o)
                0x0002a4e0                bb_ioctl_or_warn
 .text.bb_xioctl
                0x0002a50c       0x24 libbb/lib.a(xfuncs.o)
                0x0002a50c                bb_xioctl
 .text.xrealloc_getcwd_or_warn
                0x0002a530       0x88 libbb/lib.a(xgetcwd.o)
                0x0002a530                xrealloc_getcwd_or_warn
 .text.xmalloc_readlink
                0x0002a5b8       0x64 libbb/lib.a(xreadlink.o)
                0x0002a5b8                xmalloc_readlink
 .text.xmalloc_readlink_or_warn
                0x0002a61c       0x2c libbb/lib.a(xreadlink.o)
                0x0002a61c                xmalloc_readlink_or_warn
 .text.regcomp_or_errmsg
                0x0002a648       0x50 libbb/lib.a(xregcomp.o)
                0x0002a648                regcomp_or_errmsg
 .text.xregcomp
                0x0002a698       0x1c libbb/lib.a(xregcomp.o)
                0x0002a698                xregcomp
 .text.addgroup_main
                0x0002a6b4      0x130 loginutils/lib.a(addgroup.o)
                0x0002a6b4                addgroup_main
 .text.passwd_study.clone.0
                0x0002a7e4      0x11c loginutils/lib.a(adduser.o)
 .text.adduser_main
                0x0002a900      0x2c8 loginutils/lib.a(adduser.o)
                0x0002a900                adduser_main
 .text.del_line_matching
                0x0002abc8       0xf8 loginutils/lib.a(deluser.o)
 .text.deluser_main
                0x0002acc0       0xa4 loginutils/lib.a(deluser.o)
                0x0002acc0                deluser_main
 .text.nuke_str
                0x0002ad64       0x24 loginutils/lib.a(passwd.o)
 .text.passwd_main
                0x0002ad88      0x4b4 loginutils/lib.a(passwd.o)
                0x0002ad88                passwd_main
 .text.su_main  0x0002b23c      0x174 loginutils/lib.a(su.o)
                0x0002b23c                su_main
 .text.DeleteFile
                0x0002b3b0       0xb0 miscutils/lib.a(crond.o)
 .text.crondlog
                0x0002b460       0xd8 miscutils/lib.a(crond.o)
 .text.ParseField
                0x0002b538      0x2c4 miscutils/lib.a(crond.o)
 .text.SynchronizeFile
                0x0002b7fc      0x324 miscutils/lib.a(crond.o)
 .text.CheckUpdates
                0x0002bb20       0x70 miscutils/lib.a(crond.o)
 .text.SynchronizeDir
                0x0002bb90       0xf8 miscutils/lib.a(crond.o)
 .text.crond_main
                0x0002bc88      0x630 miscutils/lib.a(crond.o)
                0x0002bc88                crond_main
 .text.ChangeUser
                0x0002c2b8       0xb0 miscutils/lib.a(crontab.o)
 .text.crontab_main
                0x0002c368      0x640 miscutils/lib.a(crontab.o)
                0x0002c368                crontab_main
 .text.clear_line
                0x0002c9a8       0x20 miscutils/lib.a(less.o)
 .text.print_statusline
                0x0002c9c8       0x34 miscutils/lib.a(less.o)
 .text.read_lines
                0x0002c9fc      0x35c miscutils/lib.a(less.o)
 .text.print_hilite
                0x0002cd58       0x10 miscutils/lib.a(less.o)
 .text.print_ascii
                0x0002cd68      0x100 miscutils/lib.a(less.o)
 .text.set_tty_cooked
                0x0002ce68       0x34 miscutils/lib.a(less.o)
 .text.less_gets
                0x0002ce9c       0xf8 miscutils/lib.a(less.o)
 .text.sig_catcher
                0x0002cf94       0x10 miscutils/lib.a(less.o)
 .text.less_exit.clone.1
                0x0002cfa4       0x20 miscutils/lib.a(less.o)
 .text.buffer_print
                0x0002cfc4       0xc0 miscutils/lib.a(less.o)
 .text.buffer_fill_and_print
                0x0002d084       0x7c miscutils/lib.a(less.o)
 .text.reinitialize
                0x0002d100       0xcc miscutils/lib.a(less.o)
 .text.change_file
                0x0002d1cc       0x80 miscutils/lib.a(less.o)
 .text.examine_file
                0x0002d24c       0x4c miscutils/lib.a(less.o)
 .text.buffer_down
                0x0002d298       0x84 miscutils/lib.a(less.o)
 .text.buffer_up
                0x0002d31c       0x34 miscutils/lib.a(less.o)
 .text.buffer_line
                0x0002d350       0x44 miscutils/lib.a(less.o)
 .text.less_getch
                0x0002d394      0x1d8 miscutils/lib.a(less.o)
 .text.less_main
                0x0002d56c      0x6f8 miscutils/lib.a(less.o)
                0x0002d56c                less_main
 .text.obj_find_symbol
                0x0002dc64       0x58 modutils/lib.a(insmod.o)
 .text.obj_elf_hash
                0x0002dcbc       0x3c modutils/lib.a(insmod.o)
 .text.obj_extend_section
                0x0002dcf8       0x34 modutils/lib.a(insmod.o)
 .text.obj_load_order_prio
                0x0002dd2c       0x78 modutils/lib.a(insmod.o)
 .text.obj_find_section
                0x0002dda4       0x4c modutils/lib.a(insmod.o)
 .text.arch_new_section
                0x0002ddf0        0x8 modutils/lib.a(insmod.o)
 .text.arch_new_symbol
                0x0002ddf8       0x24 modutils/lib.a(insmod.o)
 .text.obj_add_symbol
                0x0002de1c      0x1cc modutils/lib.a(insmod.o)
 .text.obj_allocate_commons
                0x0002dfe8      0x264 modutils/lib.a(insmod.o)
 .text.get_modinfo_value
                0x0002e24c       0xc8 modutils/lib.a(insmod.o)
 .text.obj_gpl_license
                0x0002e314       0xd0 modutils/lib.a(insmod.o)
 .text.add_symbols_from
                0x0002e3e4       0xd8 modutils/lib.a(insmod.o)
 .text.print_load_map
                0x0002e4bc      0x258 modutils/lib.a(insmod.o)
 .text.check_module_name_match
                0x0002e714       0x70 modutils/lib.a(insmod.o)
 .text.obj_symbol_final_value.clone.1
                0x0002e784       0x34 modutils/lib.a(insmod.o)
 .text.obj_insert_section_load_order.clone.4
                0x0002e7b8       0x48 modutils/lib.a(insmod.o)
 .text.obj_create_alloced_section
                0x0002e800       0x94 modutils/lib.a(insmod.o)
 .text.obj_string_patch
                0x0002e894       0x94 modutils/lib.a(insmod.o)
 .text.new_process_module_arguments
                0x0002e928      0x5cc modutils/lib.a(insmod.o)
 .text.obj_symbol_patch.clone.5
                0x0002eef4       0x30 modutils/lib.a(insmod.o)
 .text.new_add_ksymtab
                0x0002ef24       0xa4 modutils/lib.a(insmod.o)
 .text.new_create_module_ksymtab
                0x0002efc8      0x228 modutils/lib.a(insmod.o)
 .text.obj_load.clone.6
                0x0002f1f0      0x458 modutils/lib.a(insmod.o)
 .text.set_tainted.clone.7
                0x0002f648       0xd0 modutils/lib.a(insmod.o)
 .text.arch_single_init.clone.0.clone.9
                0x0002f718       0x2c modutils/lib.a(insmod.o)
 .text.arch_xsect_init.clone.10
                0x0002f744       0x4c modutils/lib.a(insmod.o)
 .text.insmod_ng_main
                0x0002f790      0x13c modutils/lib.a(insmod.o)
                0x0002f790                insmod_ng_main
 .text.insmod_main
                0x0002f8cc     0x15a8 modutils/lib.a(insmod.o)
                0x0002f8cc                insmod_main
 .text.lsmod_main
                0x00030e74      0x1dc modutils/lib.a(lsmod.o)
                0x00030e74                lsmod_main
 .text.rmmod_main
                0x00031050      0x13c modutils/lib.a(rmmod.o)
                0x00031050                rmmod_main
 .text.arp_show
                0x0003118c      0x328 networking/lib.a(arp.o)
 .text.arp_main
                0x000314b4      0x6a8 networking/lib.a(arp.o)
                0x000314b4                arp_main
 .text.do_sethostname
                0x00031b5c       0xb4 networking/lib.a(hostname.o)
 .text.hostname_main
                0x00031c10      0x148 networking/lib.a(hostname.o)
                0x00031c10                hostname_main
 .text.ifconfig_main
                0x00031d58      0x4fc networking/lib.a(ifconfig.o)
                0x00031d58                ifconfig_main
 .text.get_afntype
                0x00032254       0x2c networking/lib.a(interface.o)
 .text.hexchar2int
                0x00032280       0x28 networking/lib.a(interface.o)
 .text.in_ether
                0x000322a8       0xb4 networking/lib.a(interface.o)
 .text.add_interface
                0x0003235c       0x94 networking/lib.a(interface.o)
 .text.if_readconf
                0x000323f0       0xc8 networking/lib.a(interface.o)
 .text.if_readlist_proc
                0x000324b8      0x2d4 networking/lib.a(interface.o)
 .text.do_if_fetch
                0x0003278c      0x318 networking/lib.a(interface.o)
 .text.print_bytes_scaled
                0x00032aa4       0x84 networking/lib.a(interface.o)
 .text.UNSPEC_print
                0x00032b28       0x60 networking/lib.a(interface.o)
 .text.UNSPEC_sprint
                0x00032b88       0x2c networking/lib.a(interface.o)
 .text.INET6_input
                0x00032bb4        0x4 networking/lib.a(interface.o)
 .text.INET_input
                0x00032bb8        0x8 networking/lib.a(interface.o)
 .text.INET_sprint
                0x00032bc0       0x58 networking/lib.a(interface.o)
 .text.INET6_sprint
                0x00032c18       0x54 networking/lib.a(interface.o)
 .text.pr_ether
                0x00032c6c       0x58 networking/lib.a(interface.o)
 .text.get_aftype
                0x00032cc4       0x3c networking/lib.a(interface.o)
                0x00032cc4                get_aftype
 .text.get_hwtype
                0x00032d00       0x3c networking/lib.a(interface.o)
                0x00032d00                get_hwtype
 .text.get_hwntype
                0x00032d3c       0x2c networking/lib.a(interface.o)
                0x00032d3c                get_hwntype
 .text.ife_print
                0x00032d68      0x5cc networking/lib.a(interface.o)
 .text.display_interfaces
                0x00033334       0xd8 networking/lib.a(interface.o)
                0x00033334                display_interfaces
 .text.ip_do    0x0003340c       0x3c networking/lib.a(ip.o)
 .text.ip_print_help
                0x00033448        0x8 networking/lib.a(ip.o)
 .text.ipaddr_main
                0x00033450       0x18 networking/lib.a(ip.o)
                0x00033450                ipaddr_main
 .text.iplink_main
                0x00033468       0x18 networking/lib.a(ip.o)
                0x00033468                iplink_main
 .text.iproute_main
                0x00033480       0x18 networking/lib.a(ip.o)
                0x00033480                iproute_main
 .text.iprule_main
                0x00033498       0x18 networking/lib.a(ip.o)
                0x00033498                iprule_main
 .text.iptunnel_main
                0x000334b0       0x18 networking/lib.a(ip.o)
                0x000334b0                iptunnel_main
 .text.ip_main  0x000334c8       0xd0 networking/lib.a(ip.o)
                0x000334c8                ip_main
 .text.do_info  0x00033598       0xb0 networking/lib.a(netstat.o)
 .text.build_ipv4_addr
                0x00033648       0x24 networking/lib.a(netstat.o)
 .text.unix_do_one
                0x0003366c      0x2f0 networking/lib.a(netstat.o)
 .text.build_ipv6_addr
                0x0003395c       0x6c networking/lib.a(netstat.o)
 .text.ip_port_str
                0x000339c8       0x90 networking/lib.a(netstat.o)
 .text.raw_do_one
                0x00033a58      0x1fc networking/lib.a(netstat.o)
 .text.udp_do_one
                0x00033c54      0x204 networking/lib.a(netstat.o)
 .text.tcp_do_one
                0x00033e58      0x1b8 networking/lib.a(netstat.o)
 .text.netstat_main
                0x00034010      0x290 networking/lib.a(netstat.o)
                0x00034010                netstat_main
 .text.print_host
                0x000342a0       0xec networking/lib.a(nslookup.o)
 .text.nslookup_main
                0x0003438c       0xac networking/lib.a(nslookup.o)
                0x0003438c                nslookup_main
 .text.sendping_tail
                0x00034438       0xd4 networking/lib.a(ping.o)
 .text.sendping6
                0x0003450c       0x78 networking/lib.a(ping.o)
 .text.sendping4
                0x00034584       0xc4 networking/lib.a(ping.o)
 .text.pingstats
                0x00034648      0x14c networking/lib.a(ping.o)
 .text.unpack_tail
                0x00034794      0x14c networking/lib.a(ping.o)
 .text.noresp   0x000348e0       0x18 networking/lib.a(ping.o)
 .text.ping6.clone.0
                0x000348f8      0x37c networking/lib.a(ping.o)
 .text.ping4.clone.1
                0x00034c74      0x224 networking/lib.a(ping.o)
 .text.ping_main
                0x00034e98      0x1f4 networking/lib.a(ping.o)
                0x00034e98                ping_main
 .text.ping6_main
                0x0003508c       0x14 networking/lib.a(ping.o)
                0x0003508c                ping6_main
 .text.set_flags
                0x000350a0       0x3c networking/lib.a(route.o)
 .text.kw_lookup
                0x000350dc       0x84 networking/lib.a(route.o)
 .text.INET6_displayroutes.clone.0
                0x00035160      0x204 networking/lib.a(route.o)
 .text.bb_displayroutes
                0x00035364      0x1f0 networking/lib.a(route.o)
                0x00035364                bb_displayroutes
 .text.route_main
                0x00035554      0x6d0 networking/lib.a(route.o)
                0x00035554                route_main
 .text.putiac   0x00035c24       0x20 networking/lib.a(telnet.o)
 .text.fgotsig  0x00035c44       0x10 networking/lib.a(telnet.o)
 .text.iacflush
                0x00035c54       0x28 networking/lib.a(telnet.o)
 .text.putiac2  0x00035c7c       0x40 networking/lib.a(telnet.o)
 .text.rawmode  0x00035cbc       0x24 networking/lib.a(telnet.o)
 .text.cookmode
                0x00035ce0       0x24 networking/lib.a(telnet.o)
 .text.setConMode
                0x00035d04       0x70 networking/lib.a(telnet.o)
 .text.doexit   0x00035d74       0x14 networking/lib.a(telnet.o)
 .text.conescape
                0x00035d88      0x148 networking/lib.a(telnet.o)
 .text.telnet_main
                0x00035ed0      0x738 networking/lib.a(telnet.o)
                0x00035ed0                telnet_main
 .text.send_iac
                0x00036608       0x3c networking/lib.a(telnetd.o)
 .text.free_session
                0x00036644       0xd0 networking/lib.a(telnetd.o)
 .text.make_new_session
                0x00036714      0x2bc networking/lib.a(telnetd.o)
 .text.telnetd_main
                0x000369d0      0x6a0 networking/lib.a(telnetd.o)
                0x000369d0                telnetd_main
 .text.tftp.clone.0
                0x00037070      0x45c networking/lib.a(tftp.o)
 .text.tftp_main
                0x000374cc      0x144 networking/lib.a(tftp.o)
                0x000374cc                tftp_main
 .text.ip_parse_common_args
                0x00037610      0x16c networking/libiproute/lib.a(ip_parse_common_args.o)
                0x00037610                ip_parse_common_args
 .text.ipaddr_modify
                0x0003777c      0x5a4 networking/libiproute/lib.a(ipaddress.o)
 .text.flush_update
                0x00037d20       0x44 networking/libiproute/lib.a(ipaddress.o)
 .text.print_addrinfo
                0x00037d64      0x5b0 networking/libiproute/lib.a(ipaddress.o)
 .text.store_nlmsg
                0x00038314       0x70 networking/libiproute/lib.a(ipaddress.o)
 .text.ipaddr_list_or_flush
                0x00038384      0xa44 networking/libiproute/lib.a(ipaddress.o)
                0x00038384                ipaddr_list_or_flush
 .text.do_ipaddr
                0x00038dc8       0x90 networking/libiproute/lib.a(ipaddress.o)
                0x00038dc8                do_ipaddr
 .text.on_off   0x00038e58       0x14 networking/libiproute/lib.a(iplink.o)
 .text.get_ctl_fd
                0x00038e6c       0x48 networking/libiproute/lib.a(iplink.o)
 .text.ipaddr_list_link
                0x00038eb4       0x18 networking/libiproute/lib.a(iplink.o)
 .text.do_iplink
                0x00038ecc      0x4d0 networking/libiproute/lib.a(iplink.o)
                0x00038ecc                do_iplink
 .text.iproute_reset_filter
                0x0003939c       0x2c networking/libiproute/lib.a(iproute.o)
 .text.flush_update
                0x000393c8       0x44 networking/libiproute/lib.a(iproute.o)
 .text.print_route
                0x0003940c      0x760 networking/libiproute/lib.a(iproute.o)
 .text.iproute_get
                0x00039b6c      0x430 networking/libiproute/lib.a(iproute.o)
 .text.iproute_list_or_flush
                0x00039f9c      0x520 networking/libiproute/lib.a(iproute.o)
 .text.iproute_modify
                0x0003a4bc      0x4d0 networking/libiproute/lib.a(iproute.o)
 .text.do_iproute
                0x0003a98c       0xe0 networking/libiproute/lib.a(iproute.o)
                0x0003a98c                do_iproute
 .text.print_rule
                0x0003aa6c      0x370 networking/libiproute/lib.a(iprule.o)
 .text.iprule_modify
                0x0003addc      0x400 networking/libiproute/lib.a(iprule.o)
 .text.iprule_list.clone.0
                0x0003b1dc       0x74 networking/libiproute/lib.a(iprule.o)
 .text.do_iprule
                0x0003b250       0x80 networking/libiproute/lib.a(iprule.o)
                0x0003b250                do_iprule
 .text.do_get_ioctl
                0x0003b2d0       0x5c networking/libiproute/lib.a(iptunnel.o)
 .text.parse_args
                0x0003b32c      0x6b0 networking/libiproute/lib.a(iptunnel.o)
 .text.do_add_ioctl
                0x0003b9dc       0x74 networking/libiproute/lib.a(iptunnel.o)
 .text.do_add   0x0003ba50       0xa4 networking/libiproute/lib.a(iptunnel.o)
 .text.do_del_ioctl
                0x0003baf4       0x64 networking/libiproute/lib.a(iptunnel.o)
 .text.print_tunnel
                0x0003bb58      0x304 networking/libiproute/lib.a(iptunnel.o)
 .text.do_tunnels_list
                0x0003be5c      0x2a8 networking/libiproute/lib.a(iptunnel.o)
 .text.do_iptunnel
                0x0003c104      0x194 networking/libiproute/lib.a(iptunnel.o)
                0x0003c104                do_iptunnel
 .text.rtnl_dump_filter
                0x0003c298      0x1ec networking/libiproute/lib.a(libnetlink.o)
 .text.xrtnl_open
                0x0003c484       0xbc networking/libiproute/lib.a(libnetlink.o)
                0x0003c484                xrtnl_open
 .text.xrtnl_wilddump_request
                0x0003c540       0x84 networking/libiproute/lib.a(libnetlink.o)
                0x0003c540                xrtnl_wilddump_request
 .text.rtnl_send
                0x0003c5c4       0x54 networking/libiproute/lib.a(libnetlink.o)
                0x0003c5c4                rtnl_send
 .text.xrtnl_dump_filter
                0x0003c618       0x1c networking/libiproute/lib.a(libnetlink.o)
                0x0003c618                xrtnl_dump_filter
 .text.rtnl_talk
                0x0003c634      0x304 networking/libiproute/lib.a(libnetlink.o)
                0x0003c634                rtnl_talk
 .text.addattr32
                0x0003c938       0x64 networking/libiproute/lib.a(libnetlink.o)
                0x0003c938                addattr32
 .text.addattr_l
                0x0003c99c       0x68 networking/libiproute/lib.a(libnetlink.o)
                0x0003c99c                addattr_l
 .text.rta_addattr32
                0x0003ca04       0x64 networking/libiproute/lib.a(libnetlink.o)
                0x0003ca04                rta_addattr32
 .text.parse_rtattr
                0x0003ca68       0x68 networking/libiproute/lib.a(libnetlink.o)
                0x0003ca68                parse_rtattr
 .text.ll_addr_n2a
                0x0003cad0       0xc0 networking/libiproute/lib.a(ll_addr.o)
                0x0003cad0                ll_addr_n2a
 .text.ll_addr_a2n
                0x0003cb90       0xec networking/libiproute/lib.a(ll_addr.o)
                0x0003cb90                ll_addr_a2n
 .text.find_by_index
                0x0003cc7c       0x34 networking/libiproute/lib.a(ll_map.o)
 .text.ll_remember_index
                0x0003ccb0      0x114 networking/libiproute/lib.a(ll_map.o)
                0x0003ccb0                ll_remember_index
 .text.ll_idx_n2a
                0x0003cdc4       0x48 networking/libiproute/lib.a(ll_map.o)
                0x0003cdc4                ll_idx_n2a
 .text.ll_index_to_name
                0x0003ce0c        0xc networking/libiproute/lib.a(ll_map.o)
                0x0003ce0c                ll_index_to_name
 .text.ll_index_to_flags
                0x0003ce18       0x24 networking/libiproute/lib.a(ll_map.o)
                0x0003ce18                ll_index_to_flags
 .text.xll_name_to_index
                0x0003ce3c       0x84 networking/libiproute/lib.a(ll_map.o)
                0x0003ce3c                xll_name_to_index
 .text.ll_init_map
                0x0003cec0       0x34 networking/libiproute/lib.a(ll_map.o)
                0x0003cec0                ll_init_map
 .text.ll_type_n2a
                0x0003cef4       0x5c networking/libiproute/lib.a(ll_types.o)
                0x0003cef4                ll_type_n2a
 .text.rtnl_tab_initialize.clone.0
                0x0003cf50      0x150 networking/libiproute/lib.a(rt_names.o)
 .text.rtnl_rtprot_initialize
                0x0003d0a0       0x68 networking/libiproute/lib.a(rt_names.o)
 .text.rtnl_rtscope_initialize
                0x0003d108       0x74 networking/libiproute/lib.a(rt_names.o)
 .text.rtnl_rtrealm_initialize
                0x0003d17c       0x44 networking/libiproute/lib.a(rt_names.o)
 .text.rtnl_rtdsfield_initialize
                0x0003d1c0       0x44 networking/libiproute/lib.a(rt_names.o)
 .text.rtnl_rttable_initialize
                0x0003d204       0x70 networking/libiproute/lib.a(rt_names.o)
 .text.rtnl_rtprot_a2n
                0x0003d274       0xe0 networking/libiproute/lib.a(rt_names.o)
                0x0003d274                rtnl_rtprot_a2n
 .text.rtnl_rtscope_n2a
                0x0003d354       0x70 networking/libiproute/lib.a(rt_names.o)
                0x0003d354                rtnl_rtscope_n2a
 .text.rtnl_rtscope_a2n
                0x0003d3c4       0xe0 networking/libiproute/lib.a(rt_names.o)
                0x0003d3c4                rtnl_rtscope_a2n
 .text.rtnl_rtrealm_a2n
                0x0003d4a4       0xe0 networking/libiproute/lib.a(rt_names.o)
                0x0003d4a4                rtnl_rtrealm_a2n
 .text.rtnl_rtrealm_n2a
                0x0003d584       0x70 networking/libiproute/lib.a(rt_names.o)
                0x0003d584                rtnl_rtrealm_n2a
 .text.rtnl_dsfield_n2a
                0x0003d5f4       0x74 networking/libiproute/lib.a(rt_names.o)
                0x0003d5f4                rtnl_dsfield_n2a
 .text.rtnl_dsfield_a2n
                0x0003d668       0xe0 networking/libiproute/lib.a(rt_names.o)
                0x0003d668                rtnl_dsfield_a2n
 .text.rtnl_rttable_n2a
                0x0003d748       0x70 networking/libiproute/lib.a(rt_names.o)
                0x0003d748                rtnl_rttable_n2a
 .text.rtnl_rttable_a2n
                0x0003d7b8       0xd8 networking/libiproute/lib.a(rt_names.o)
                0x0003d7b8                rtnl_rttable_a2n
 .text.rtnl_rtntype_n2a
                0x0003d890       0xf4 networking/libiproute/lib.a(rtm_map.o)
                0x0003d890                rtnl_rtntype_n2a
 .text.rtnl_rtntype_a2n
                0x0003d984      0x118 networking/libiproute/lib.a(rtm_map.o)
                0x0003d984                rtnl_rtntype_a2n
 .text.get_rt_realms
                0x0003da9c       0xa4 networking/libiproute/lib.a(rtm_map.o)
                0x0003da9c                get_rt_realms
 .text.get_integer
                0x0003db40       0x58 networking/libiproute/lib.a(utils.o)
                0x0003db40                get_integer
 .text.get_unsigned
                0x0003db98       0x58 networking/libiproute/lib.a(utils.o)
                0x0003db98                get_unsigned
 .text.get_u32  0x0003dbf0       0x58 networking/libiproute/lib.a(utils.o)
                0x0003dbf0                get_u32
 .text.get_addr_1
                0x0003dc48      0x16c networking/libiproute/lib.a(utils.o)
                0x0003dc48                get_addr_1
 .text.get_prefix_1
                0x0003ddb4       0xfc networking/libiproute/lib.a(utils.o)
                0x0003ddb4                get_prefix_1
 .text.get_addr
                0x0003deb0       0x34 networking/libiproute/lib.a(utils.o)
                0x0003deb0                get_addr
 .text.get_prefix
                0x0003dee4       0x34 networking/libiproute/lib.a(utils.o)
                0x0003dee4                get_prefix
 .text.get_addr32
                0x0003df18       0x40 networking/libiproute/lib.a(utils.o)
                0x0003df18                get_addr32
 .text.incomplete_command
                0x0003df58       0x10 networking/libiproute/lib.a(utils.o)
                0x0003df58                incomplete_command
 .text.invarg   0x0003df68       0x1c networking/libiproute/lib.a(utils.o)
                0x0003df68                invarg
 .text.duparg   0x0003df84       0x1c networking/libiproute/lib.a(utils.o)
                0x0003df84                duparg
 .text.duparg2  0x0003dfa0       0x1c networking/libiproute/lib.a(utils.o)
                0x0003dfa0                duparg2
 .text.inet_addr_match
                0x0003dfbc       0x78 networking/libiproute/lib.a(utils.o)
                0x0003dfbc                inet_addr_match
 .text.rt_addr_n2a
                0x0003e034       0x2c networking/libiproute/lib.a(utils.o)
                0x0003e034                rt_addr_n2a
 .text.format_host
                0x0003e060        0x4 networking/libiproute/lib.a(utils.o)
                0x0003e060                format_host
 .text.free_main
                0x0003e064      0x1bc procps/lib.a(free.o)
                0x0003e064                free_main
 .text.kill_main
                0x0003e220      0x2e4 procps/lib.a(kill.o)
                0x0003e220                kill_main
 .text.pidof_main
                0x0003e504       0xa0 procps/lib.a(pidof.o)
                0x0003e504                pidof_main
 .text.ps_main  0x0003e5a4      0x130 procps/lib.a(ps.o)
                0x0003e5a4                ps_main
 .text.dwrite_str
                0x0003e6d4       0x28 procps/lib.a(sysctl.o)
 .text.sysctl_write_setting
                0x0003e6fc      0x1d0 procps/lib.a(sysctl.o)
 .text.sysctl_preload_file
                0x0003e8cc      0x14c procps/lib.a(sysctl.o)
 .text.sysctl_read_setting
                0x0003ea18      0x18c procps/lib.a(sysctl.o)
 .text.sysctl_display_all
                0x0003eba4       0xd0 procps/lib.a(sysctl.o)
 .text.sysctl_main
                0x0003ec74      0x14c procps/lib.a(sysctl.o)
                0x0003ec74                sysctl_main
 .text.pid_sort
                0x0003edc0       0x10 procps/lib.a(top.o)
 .text.mem_sort
                0x0003edd0       0x24 procps/lib.a(top.o)
 .text.pcpu_sort
                0x0003edf4       0x10 procps/lib.a(top.o)
 .text.time_sort
                0x0003ee04       0x24 procps/lib.a(top.o)
 .text.mult_lvl_cmp
                0x0003ee28       0x3c procps/lib.a(top.o)
 .text.reset_term
                0x0003ee64       0x14 procps/lib.a(top.o)
 .text.fmt_100percent_8
                0x0003ee78       0xbc procps/lib.a(top.o)
 .text.do_stats
                0x0003ef34      0x208 procps/lib.a(top.o)
 .text.display_status
                0x0003f13c      0x5dc procps/lib.a(top.o)
 .text.clearmems
                0x0003f718       0x28 procps/lib.a(top.o)
 .text.sig_catcher
                0x0003f740       0x10 procps/lib.a(top.o)
 .text.top_main
                0x0003f750      0x39c procps/lib.a(top.o)
                0x0003f750                top_main
 .text.uptime_main
                0x0003faec      0x13c procps/lib.a(uptime.o)
                0x0003faec                uptime_main
 .text.stunalloc
                0x0003fc28       0x2c shell/lib.a(ash.o)
 .text.setstackmark
                0x0003fc54       0x48 shell/lib.a(ash.o)
 .text.prefix   0x0003fc9c       0x34 shell/lib.a(ash.o)
 .text.is_number
                0x0003fcd0       0x34 shell/lib.a(ash.o)
 .text.varcmp   0x0003fd04       0x48 shell/lib.a(ash.o)
 .text.varequal
                0x0003fd4c       0x14 shell/lib.a(ash.o)
 .text.hashvar  0x0003fd60       0x40 shell/lib.a(ash.o)
 .text.vpcmp    0x0003fda0        0xc shell/lib.a(ash.o)
 .text.findvar  0x0003fdac       0x3c shell/lib.a(ash.o)
 .text.set_curjob
                0x0003fde8       0x70 shell/lib.a(ash.o)
 .text.jobno    0x0003fe58       0x28 shell/lib.a(ash.o)
 .text.getstatus
                0x0003fe80       0x50 shell/lib.a(ash.o)
 .text.esclen   0x0003fed0       0x28 shell/lib.a(ash.o)
 .text.falsecmd
                0x0003fef8        0x8 shell/lib.a(ash.o)
 .text.truecmd  0x0003ff00        0x8 shell/lib.a(ash.o)
 .text.bltincmd
                0x0003ff08       0x10 shell/lib.a(ash.o)
 .text.pungetc  0x0003ff18       0x2c shell/lib.a(ash.o)
 .text.lookupvar
                0x0003ff44       0x64 shell/lib.a(ash.o)
 .text.bltinlookup
                0x0003ffa8       0x5c shell/lib.a(ash.o)
 .text.calcsize
                0x00040004      0x12c shell/lib.a(ash.o)
 .text.sizenodelist
                0x00040130       0x38 shell/lib.a(ash.o)
 .text.ignoresig
                0x00040168       0x3c shell/lib.a(ash.o)
 .text.SIT      0x000401a4       0x90 shell/lib.a(ash.o)
 .text.tokname  0x00040234       0x4c shell/lib.a(ash.o)
 .text.endofname
                0x00040280       0x58 shell/lib.a(ash.o)
 .text.goodname
                0x000402d8       0x18 shell/lib.a(ash.o)
 .text.isassignment
                0x000402f0       0x30 shell/lib.a(ash.o)
 .text.freealias
                0x00040320       0x44 shell/lib.a(ash.o)
 .text.freefunc
                0x00040364       0x20 shell/lib.a(ash.o)
 .text.freeparam
                0x00040384       0x38 shell/lib.a(ash.o)
 .text.scanright
                0x000403bc       0x9c shell/lib.a(ash.o)
 .text.scanleft
                0x00040458       0x78 shell/lib.a(ash.o)
 .text.__lookupalias
                0x000404d0       0x70 shell/lib.a(ash.o)
 .text.lookupalias
                0x00040540       0x2c shell/lib.a(ash.o)
 .text.msort    0x0004056c       0xbc shell/lib.a(ash.o)
 .text.pstrcmp  0x00040628        0xc shell/lib.a(ash.o)
 .text.setsignal
                0x00040634      0x1bc shell/lib.a(ash.o)
 .text.nodeckstrdup
                0x000407f0       0x3c shell/lib.a(ash.o)
 .text.copynode
                0x0004082c      0x14c shell/lib.a(ash.o)
 .text.copynodelist
                0x00040978       0x50 shell/lib.a(ash.o)
 .text.raise_exception
                0x000409c8       0x38 shell/lib.a(ash.o)
 .text.raise_interrupt
                0x00040a00       0xa0 shell/lib.a(ash.o)
 .text.int_on   0x00040aa0       0x3c shell/lib.a(ash.o)
 .text.clearcmdentry
                0x00040adc       0x98 shell/lib.a(ash.o)
 .text.changepath
                0x00040b74      0x110 shell/lib.a(ash.o)
 .text.fmtstr   0x00040c84       0x48 shell/lib.a(ash.o)
 .text.sprint_status
                0x00040ccc       0xd0 shell/lib.a(ash.o)
 .text.removerecordregions
                0x00040d9c      0x10c shell/lib.a(ash.o)
 .text.freejob  0x00040ea8       0x84 shell/lib.a(ash.o)
 .text.unalias  0x00040f2c       0x4c shell/lib.a(ash.o)
 .text.popstring
                0x00040f78       0xdc shell/lib.a(ash.o)
 .text.popfile  0x00041054       0xb4 shell/lib.a(ash.o)
 .text.popallfiles
                0x00041108       0x2c shell/lib.a(ash.o)
 .text.outstr   0x00041134       0x24 shell/lib.a(ash.o)
 .text.out1str  0x00041158       0x10 shell/lib.a(ash.o)
 .text.flush_stderr
                0x00041168       0x30 shell/lib.a(ash.o)
 .text.out2str  0x00041198       0x1c shell/lib.a(ash.o)
 .text.stoppedjobs
                0x000411b4       0x60 shell/lib.a(ash.o)
 .text.dowait   0x00041214      0x1ac shell/lib.a(ash.o)
 .text.popstackmark
                0x000413c0       0x98 shell/lib.a(ash.o)
 .text.flush_stdout_stderr
                0x00041458       0x40 shell/lib.a(ash.o)
 .text.delete_cmd_entry
                0x00041498       0x54 shell/lib.a(ash.o)
 .text.onsig    0x000414ec       0x88 shell/lib.a(ash.o)
 .text.force_int_on
                0x00041574       0x2c shell/lib.a(ash.o)
 .text.errmsg   0x000415a0       0x18 shell/lib.a(ash.o)
 .text.pgetc    0x000415b8      0x2f8 shell/lib.a(ash.o)
 .text.pgetc2   0x000418b0       0x14 shell/lib.a(ash.o)
 .text.findkwd  0x000418c4       0x28 shell/lib.a(ash.o)
 .text.find_builtin
                0x000418ec       0x28 shell/lib.a(ash.o)
 .text.out1fmt  0x00041914       0x44 shell/lib.a(ash.o)
 .text.helpcmd  0x00041958       0x7c shell/lib.a(ash.o)
 .text.timescmd
                0x000419d4       0xa8 shell/lib.a(ash.o)
 .text.echocmd  0x00041a7c        0x8 shell/lib.a(ash.o)
 .text.testcmd  0x00041a84        0x4 shell/lib.a(ash.o)
 .text.printlim.clone.4
                0x00041a88       0x64 shell/lib.a(ash.o)
 .text.evalbltin.clone.5
                0x00041aec       0xf4 shell/lib.a(ash.o)
 .text.outcslow.clone.7
                0x00041be0       0x38 shell/lib.a(ash.o)
 .text.showpipe
                0x00041c18       0x4c shell/lib.a(ash.o)
 .text.showjob  0x00041c64      0x1d0 shell/lib.a(ash.o)
 .text.showjobs
                0x00041e34       0x70 shell/lib.a(ash.o)
 .text.ash_vmsg
                0x00041ea4       0xd4 shell/lib.a(ash.o)
 .text.ash_msg  0x00041f78       0x24 shell/lib.a(ash.o)
 .text.ash_vmsg_and_raise
                0x00041f9c       0x20 shell/lib.a(ash.o)
 .text.ash_msg_and_raise_error
                0x00041fbc       0x1c shell/lib.a(ash.o)
 .text.ckrealloc
                0x00041fd8       0x1c shell/lib.a(ash.o)
 .text.ckmalloc
                0x00041ff4        0xc shell/lib.a(ash.o)
 .text.recordregion
                0x00042000       0x74 shell/lib.a(ash.o)
 .text.cmdlookup
                0x00042074       0xd4 shell/lib.a(ash.o)
 .text.pushfile
                0x00042148       0x7c shell/lib.a(ash.o)
 .text.setinputstring
                0x000421c4       0x6c shell/lib.a(ash.o)
 .text.pushstring
                0x00042230       0xac shell/lib.a(ash.o)
 .text.tryexec  0x000422dc       0xac shell/lib.a(ash.o)
 .text.makejob.clone.0
                0x00042388      0x1c0 shell/lib.a(ash.o)
 .text.ckstrdup
                0x00042548       0x1c shell/lib.a(ash.o)
 .text.setparam
                0x00042564       0x84 shell/lib.a(ash.o)
 .text.setvareq
                0x000425e8      0x118 shell/lib.a(ash.o)
 .text.listsetvar
                0x00042700       0x44 shell/lib.a(ash.o)
 .text.setvar   0x00042744       0xe4 shell/lib.a(ash.o)
 .text.change_random
                0x00042828       0x90 shell/lib.a(ash.o)
 .text.arith    0x000428b8      0x6c0 shell/lib.a(ash.o)
 .text.arith_lookup_val
                0x00042f78       0x9c shell/lib.a(ash.o)
 .text.unsetvar
                0x00043014       0xb8 shell/lib.a(ash.o)
 .text.setvarsafe
                0x000430cc       0xa8 shell/lib.a(ash.o)
 .text.localcmd
                0x00043174      0x130 shell/lib.a(ash.o)
 .text.setpwd   0x000432a4      0x108 shell/lib.a(ash.o)
 .text.number   0x000433ac       0x30 shell/lib.a(ash.o)
 .text.getoptsreset
                0x000433dc       0x20 shell/lib.a(ash.o)
 .text.returncmd
                0x000433fc       0x44 shell/lib.a(ash.o)
 .text.exitcmd  0x00043440       0x44 shell/lib.a(ash.o)
 .text.varunset
                0x00043484       0x68 shell/lib.a(ash.o)
 .text.xtcsetpgrp
                0x000434ec       0x1c shell/lib.a(ash.o)
 .text.waitforjob
                0x00043508       0x90 shell/lib.a(ash.o)
 .text.setjobctl
                0x00043598      0x1a4 shell/lib.a(ash.o)
 .text.optschanged
                0x0004373c       0x98 shell/lib.a(ash.o)
 .text.copyfd   0x000437d4       0x4c shell/lib.a(ash.o)
 .text.popredir
                0x00043820       0xb0 shell/lib.a(ash.o)
 .text.clearredir
                0x000438d0       0x38 shell/lib.a(ash.o)
 .text.raise_error_syntax
                0x00043908       0x14 shell/lib.a(ash.o)
 .text.raise_error_unexpected_syntax
                0x0004391c       0x60 shell/lib.a(ash.o)
 .text.dash_arith
                0x0004397c       0x84 shell/lib.a(ash.o)
 .text.stalloc  0x00043a00       0xbc shell/lib.a(ash.o)
 .text.ststrdup
                0x00043abc       0x28 shell/lib.a(ash.o)
 .text.addfname
                0x00043ae4       0x38 shell/lib.a(ash.o)
 .text.expmeta  0x00043b1c      0x280 shell/lib.a(ash.o)
 .text.makename
                0x00043d9c       0x40 shell/lib.a(ash.o)
 .text.fixredir
                0x00043ddc       0x6c shell/lib.a(ash.o)
 .text.growstackblock
                0x00043e48      0x11c shell/lib.a(ash.o)
 .text.makestrspace
                0x00043f64       0x48 shell/lib.a(ash.o)
 .text.memtodest
                0x00043fac       0x84 shell/lib.a(ash.o)
 .text.stack_nputstr
                0x00044030       0x2c shell/lib.a(ash.o)
 .text.stack_putstr
                0x0004405c       0x24 shell/lib.a(ash.o)
 .text.cvtnum   0x00044080       0x44 shell/lib.a(ash.o)
 .text.cmdputs  0x000440c4      0x204 shell/lib.a(ash.o)
 .text.cmdtxt   0x000442c8      0x33c shell/lib.a(ash.o)
 .text.cmdlist  0x00044604       0x58 shell/lib.a(ash.o)
 .text._rmescapes
                0x0004465c      0x124 shell/lib.a(ash.o)
 .text.preglob  0x00044780       0x14 shell/lib.a(ash.o)
 .text.single_quote
                0x00044794       0xbc shell/lib.a(ash.o)
 .text.printalias
                0x00044850       0x28 shell/lib.a(ash.o)
 .text.aliascmd
                0x00044878      0x164 shell/lib.a(ash.o)
 .text.growstackstr
                0x000449dc       0x64 shell/lib.a(ash.o)
 .text._STPUTC  0x00044a40       0x2c shell/lib.a(ash.o)
 .text.listvars
                0x00044a6c       0xac shell/lib.a(ash.o)
 .text.showvars
                0x00044b18       0xc4 shell/lib.a(ash.o)
 .text.padvance
                0x00044bdc      0x10c shell/lib.a(ash.o)
 .text.forkshell
                0x00044ce8      0x328 shell/lib.a(ash.o)
 .text.nextopt  0x00045010      0x11c shell/lib.a(ash.o)
 .text.unsetcmd
                0x0004512c       0x8c shell/lib.a(ash.o)
 .text.unaliascmd
                0x000451b8       0xf4 shell/lib.a(ash.o)
 .text.cdopt    0x000452ac       0x38 shell/lib.a(ash.o)
 .text.pwdcmd   0x000452e4       0x64 shell/lib.a(ash.o)
 .text.exportcmd
                0x00045348       0xc0 shell/lib.a(ash.o)
 .text.getjob   0x00045408      0x190 shell/lib.a(ash.o)
 .text.jobscmd  0x00045598       0x98 shell/lib.a(ash.o)
 .text.waitcmd  0x00045630      0x140 shell/lib.a(ash.o)
 .text.fg_bgcmd
                0x00045770      0x150 shell/lib.a(ash.o)
 .text.killcmd  0x000458c0       0x8c shell/lib.a(ash.o)
 .text.setinputfile
                0x0004594c      0x108 shell/lib.a(ash.o)
 .text.shiftcmd
                0x00045a54       0xc4 shell/lib.a(ash.o)
 .text.letcmd   0x00045b18       0x44 shell/lib.a(ash.o)
 .text.breakcmd
                0x00045b5c       0x8c shell/lib.a(ash.o)
 .text.umaskcmd
                0x00045be8      0x1c4 shell/lib.a(ash.o)
 .text.options  0x00045dac      0x25c shell/lib.a(ash.o)
 .text.setcmd   0x00046008       0x6c shell/lib.a(ash.o)
 .text.ulimitcmd
                0x00046074      0x204 shell/lib.a(ash.o)
 .text.trapcmd  0x00046278      0x130 shell/lib.a(ash.o)
 .text.readcmd  0x000463a8      0x4e4 shell/lib.a(ash.o)
 .text.cdcmd    0x0004688c      0x3a8 shell/lib.a(ash.o)
 .text.ash_msg_and_raise
                0x00046c34       0x18 shell/lib.a(ash.o)
 .text.shellexec
                0x00046c4c      0x11c shell/lib.a(ash.o)
 .text.execcmd  0x00046d68       0x4c shell/lib.a(ash.o)
 .text.readtoken1
                0x00046db4      0xe28 shell/lib.a(ash.o)
 .text.parseheredoc
                0x00047bdc       0xa4 shell/lib.a(ash.o)
 .text.readtoken
                0x00047c80       0xe4 shell/lib.a(ash.o)
 .text.parsefname
                0x00047d64      0x14c shell/lib.a(ash.o)
 .text.peektoken
                0x00047eb0       0x30 shell/lib.a(ash.o)
 .text.list     0x00047ee0      0x1c4 shell/lib.a(ash.o)
 .text.parse_command
                0x000480a4      0x70c shell/lib.a(ash.o)
 .text.pipeline
                0x000487b0       0xf8 shell/lib.a(ash.o)
 .text.parsecmd
                0x000488a8       0x78 shell/lib.a(ash.o)
 .text.evalstring
                0x00048920       0x74 shell/lib.a(ash.o)
 .text.evaltree
                0x00048994      0x340 shell/lib.a(ash.o)
 .text.argstr   0x00048cd4      0x61c shell/lib.a(ash.o)
 .text.expandarg
                0x000492f0      0x440 shell/lib.a(ash.o)
 .text.expredir
                0x00049730       0xbc shell/lib.a(ash.o)
 .text.redirect
                0x000497ec      0x4c0 shell/lib.a(ash.o)
 .text.redirectsafe
                0x00049cac       0xc0 shell/lib.a(ash.o)
 .text.evalsubshell
                0x00049d6c       0xcc shell/lib.a(ash.o)
 .text.expandstr
                0x00049e38       0x74 shell/lib.a(ash.o)
 .text.setprompt
                0x00049eac       0xa0 shell/lib.a(ash.o)
 .text.xxreadtoken
                0x00049f4c      0x1a4 shell/lib.a(ash.o)
 .text.subevalvar
                0x0004a0f0      0x1ac shell/lib.a(ash.o)
 .text.evalvar  0x0004a29c      0x58c shell/lib.a(ash.o)
 .text.evalcase
                0x0004a828      0x154 shell/lib.a(ash.o)
 .text.evalloop
                0x0004a97c      0x108 shell/lib.a(ash.o)
 .text.evalfor  0x0004aa84      0x13c shell/lib.a(ash.o)
 .text.evalfun  0x0004abc0      0x224 shell/lib.a(ash.o)
 .text.evalcmd  0x0004ade4       0x8c shell/lib.a(ash.o)
 .text.exitshell
                0x0004ae70       0x88 shell/lib.a(ash.o)
 .text.cmdloop  0x0004aef8      0x11c shell/lib.a(ash.o)
 .text.find_command
                0x0004b014      0x408 shell/lib.a(ash.o)
 .text.evalpipe
                0x0004b41c      0x1b4 shell/lib.a(ash.o)
 .text.hashcmd  0x0004b5d0      0x180 shell/lib.a(ash.o)
 .text.describe_command
                0x0004b750      0x1f0 shell/lib.a(ash.o)
 .text.typecmd  0x0004b940       0x68 shell/lib.a(ash.o)
 .text.commandcmd
                0x0004b9a8       0x58 shell/lib.a(ash.o)
 .text.evalcommand
                0x0004ba00      0x600 shell/lib.a(ash.o)
 .text.dotcmd   0x0004c000      0x178 shell/lib.a(ash.o)
 .text.read_profile
                0x0004c178       0x30 shell/lib.a(ash.o)
 .text.getoptscmd
                0x0004c1a8      0x310 shell/lib.a(ash.o)
 .text.ash_main
                0x0004c4b8      0x584 shell/lib.a(ash.o)
                0x0004c4b8                ash_main
 .text.klogd_signal
                0x0004ca3c       0x3c sysklogd/lib.a(klogd.o)
 .text.klogd_main
                0x0004ca78      0x1d0 sysklogd/lib.a(klogd.o)
                0x0004ca78                klogd_main
 .text.error_exit
                0x0004cc48       0x20 sysklogd/lib.a(logread.o)
 .text.sem_up   0x0004cc68       0x28 sysklogd/lib.a(logread.o)
 .text.interrupted
                0x0004cc90       0x28 sysklogd/lib.a(logread.o)
 .text.logread_main
                0x0004ccb8      0x218 sysklogd/lib.a(logread.o)
                0x0004ccb8                logread_main
 .text.log_locally
                0x0004ced0      0x320 sysklogd/lib.a(syslogd.o)
 .text.timestamp_and_log
                0x0004d1f0      0x1a8 sysklogd/lib.a(syslogd.o)
 .text.do_syslogd
                0x0004d398      0x46c sysklogd/lib.a(syslogd.o)
 .text.quit_signal
                0x0004d804       0x7c sysklogd/lib.a(syslogd.o)
 .text.syslogd_main
                0x0004d880      0x1b4 sysklogd/lib.a(syslogd.o)
                0x0004d880                syslogd_main
 .text.dmesg_main
                0x0004da34      0x10c util-linux/lib.a(dmesg.o)
                0x0004da34                dmesg_main
 .text.gotsig   0x0004db40       0x38 util-linux/lib.a(more.o)
 .text.more_main
                0x0004db78      0x384 util-linux/lib.a(more.o)
                0x0004db78                more_main
 .text.append_mount_options
                0x0004defc       0xec util-linux/lib.a(mount.o)
 .text.parse_mount_options
                0x0004dfe8      0x100 util-linux/lib.a(mount.o)
 .text.error_msg_rpc
                0x0004e0e8       0x5c util-linux/lib.a(mount.o)
 .text.mount_it_now
                0x0004e144       0x90 util-linux/lib.a(mount.o)
 .text.nfs_strerror
                0x0004e1d4       0x64 util-linux/lib.a(mount.o)
 .text.daemonize
                0x0004e238       0xb8 util-linux/lib.a(mount.o)
 .text.xdr_fhstatus
                0x0004e2f0       0x48 util-linux/lib.a(mount.o)
 .text.xdr_mountres3
                0x0004e338       0x88 util-linux/lib.a(mount.o)
 .text.xdr_dirpath
                0x0004e3c0       0x18 util-linux/lib.a(mount.o)
 .text.singlemount
                0x0004e3d8     0x12d4 util-linux/lib.a(mount.o)
 .text.mount_main
                0x0004f6ac      0x410 util-linux/lib.a(mount.o)
                0x0004f6ac                mount_main
 .text.pivot_root_main
                0x0004fabc       0x2c util-linux/lib.a(pivot_root.o)
                0x0004fabc                pivot_root_main
 .text.socket_timeout
                0x0004fae8       0x10 util-linux/lib.a(rdate.o)
 .text.rdate_main
                0x0004faf8      0x13c util-linux/lib.a(rdate.o)
                0x0004faf8                rdate_main
 .text.umount_main
                0x0004fc34      0x354 util-linux/lib.a(umount.o)
                0x0004fc34                umount_main
 .text.askpass_timeout
                0x0004ff88        0x4 libbb/lib.a(bb_askpass.o)
 .text.bb_askpass
                0x0004ff8c      0x16c libbb/lib.a(bb_askpass.o)
                0x0004ff8c                bb_askpass
 .text.bb_do_delay
                0x000500f8       0x68 libbb/lib.a(bb_do_delay.o)
                0x000500f8                bb_do_delay
 .text.change_identity_e2str
                0x00050160       0x44 libbb/lib.a(change_identity.o)
                0x00050160                change_identity_e2str
 .text.change_identity
                0x000501a4       0x1c libbb/lib.a(change_identity.o)
                0x000501a4                change_identity
 .text.chomp    0x000501c0       0x1c libbb/lib.a(chomp.o)
                0x000501c0                chomp
 .text.correct_password
                0x000501dc       0xd0 libbb/lib.a(correct_password.o)
                0x000501dc                correct_password
 .text.create_icmp6_socket
                0x000502ac       0x70 libbb/lib.a(create_icmp6_socket.o)
                0x000502ac                create_icmp6_socket
 .text.create_icmp_socket
                0x0005031c       0x70 libbb/lib.a(create_icmp_socket.o)
                0x0005031c                create_icmp_socket
 .text.i64c     0x0005038c       0x38 libbb/lib.a(crypt_make_salt.o)
 .text.crypt_make_salt
                0x000503c4       0x78 libbb/lib.a(crypt_make_salt.o)
                0x000503c4                crypt_make_salt
 .text.device_open
                0x0005043c       0x58 libbb/lib.a(device_open.o)
                0x0005043c                device_open
 .text.find_pid_by_name
                0x00050494       0xa0 libbb/lib.a(find_pid_by_name.o)
                0x00050494                find_pid_by_name
 .text.pidlist_reverse
                0x00050534       0x60 libbb/lib.a(find_pid_by_name.o)
                0x00050534                pidlist_reverse
 .text.bb_herror_msg
                0x00050594       0x38 libbb/lib.a(herror_msg.o)
                0x00050594                bb_herror_msg
 .text.bb_herror_msg_and_die
                0x000505cc       0x30 libbb/lib.a(herror_msg_and_die.o)
                0x000505cc                bb_herror_msg_and_die
 .text.INET_resolve
                0x000505fc       0xc4 libbb/lib.a(inet_common.o)
                0x000505fc                INET_resolve
 .text.INET_rresolve
                0x000506c0      0x148 libbb/lib.a(inet_common.o)
                0x000506c0                INET_rresolve
 .text.INET6_resolve
                0x00050808       0x8c libbb/lib.a(inet_common.o)
                0x00050808                INET6_resolve
 .text.INET6_rresolve
                0x00050894       0xf4 libbb/lib.a(inet_common.o)
                0x00050894                INET6_rresolve
 .text.bb_info_msg
                0x00050988       0x7c libbb/lib.a(info_msg.o)
                0x00050988                bb_info_msg
 .text.get_linux_version_code
                0x00050a04       0x70 libbb/lib.a(kernel_version.o)
                0x00050a04                get_linux_version_code
 .text.input_backward
                0x00050a74       0xc4 libbb/lib.a(lineedit.o)
 .text.put_prompt
                0x00050b38       0x60 libbb/lib.a(lineedit.o)
 .text.beep     0x00050b98       0x14 libbb/lib.a(lineedit.o)
 .text.cmdedit_set_out_char
                0x00050bac       0xc4 libbb/lib.a(lineedit.o)
 .text.input_forward
                0x00050c70       0x38 libbb/lib.a(lineedit.o)
 .text.input_end
                0x00050ca8       0x34 libbb/lib.a(lineedit.o)
 .text.goto_new_line
                0x00050cdc       0x34 libbb/lib.a(lineedit.o)
 .text.redraw   0x00050d10       0x50 libbb/lib.a(lineedit.o)
 .text.match_compare
                0x00050d60        0xc libbb/lib.a(lineedit.o)
 .text.get_previous_history
                0x00050d6c       0x80 libbb/lib.a(lineedit.o)
 .text.get_next_history
                0x00050dec       0x4c libbb/lib.a(lineedit.o)
 .text.add_quote_for_spec_chars
                0x00050e38       0x64 libbb/lib.a(lineedit.o)
 .text.input_tab
                0x00050e9c      0xe9c libbb/lib.a(lineedit.o)
 .text.win_changed
                0x00051d38       0xa4 libbb/lib.a(lineedit.o)
 .text.input_delete.clone.0
                0x00051ddc       0x64 libbb/lib.a(lineedit.o)
 .text.input_backspace
                0x00051e40       0x28 libbb/lib.a(lineedit.o)
 .text.read_line_input
                0x00051e68      0x644 libbb/lib.a(lineedit.o)
                0x00051e68                read_line_input
 .text.new_line_input_t
                0x000524ac       0x18 libbb/lib.a(lineedit.o)
                0x000524ac                new_line_input_t
 .text.print_login_issue
                0x000524c4      0x1e8 libbb/lib.a(login.o)
                0x000524c4                print_login_issue
 .text.del_loop
                0x000526ac       0x38 libbb/lib.a(loop.o)
                0x000526ac                del_loop
 .text.set_loop
                0x000526e4      0x254 libbb/lib.a(loop.o)
                0x000526e4                set_loop
 .text.match_fstype
                0x00052938       0xac libbb/lib.a(match_fstype.o)
                0x00052938                match_fstype
 .text.string_checker_helper
                0x000529e4       0x50 libbb/lib.a(obscure.o)
 .text.string_checker
                0x00052a34       0x88 libbb/lib.a(obscure.o)
 .text.obscure  0x00052abc      0x1d4 libbb/lib.a(obscure.o)
                0x00052abc                obscure
 .text.write_pidfile
                0x00052c90       0xa4 libbb/lib.a(pidfile.o)
                0x00052c90                write_pidfile
 .text.pw_encrypt
                0x00052d34       0x34 libbb/lib.a(pw_encrypt.o)
                0x00052d34                pw_encrypt
 .text.run_shell
                0x00052d68       0xdc libbb/lib.a(run_shell.o)
                0x00052d68                run_shell
 .text.setup_environment
                0x00052e44      0x120 libbb/lib.a(setup_environment.o)
                0x00052e44                setup_environment
 .text.bb_simplify_path
                0x00052f64       0xfc libbb/lib.a(simplify_path.o)
                0x00052f64                bb_simplify_path
 .text.monotonic_us
                0x00053060       0x34 libbb/lib.a(time.o)
                0x00053060                monotonic_us
 .text.trim     0x00053094       0x70 libbb/lib.a(trim.o)
                0x00053094                trim
 .text.get_signum
                0x00053104       0x88 libbb/lib.a(u_signal_names.o)
                0x00053104                get_signum
 .text.get_signame
                0x0005318c       0x34 libbb/lib.a(u_signal_names.o)
                0x0005318c                get_signame
 .text.update_passwd
                0x000531c0      0x2e8 libbb/lib.a(update_passwd.o)
                0x000531c0                update_passwd
 .text.bb_warn_ignoring_args
                0x000534a8       0x14 libbb/lib.a(warn_ignoring_args.o)
                0x000534a8                bb_warn_ignoring_args
 .text.sockaddr2str
                0x000534bc       0xb4 libbb/lib.a(xconnect.o)
 .text.setsockopt_reuseaddr
                0x00053570       0x24 libbb/lib.a(xconnect.o)
                0x00053570                setsockopt_reuseaddr
 .text.setsockopt_broadcast
                0x00053594       0x24 libbb/lib.a(xconnect.o)
                0x00053594                setsockopt_broadcast
 .text.xconnect
                0x000535b8       0x48 libbb/lib.a(xconnect.o)
                0x000535b8                xconnect
 .text.bb_lookup_port
                0x00053600       0x80 libbb/lib.a(xconnect.o)
                0x00053600                bb_lookup_port
 .text.get_nport
                0x00053680       0x24 libbb/lib.a(xconnect.o)
                0x00053680                get_nport
 .text.set_nport
                0x000536a4       0x1c libbb/lib.a(xconnect.o)
                0x000536a4                set_nport
 .text.str2sockaddr
                0x000536c0      0x188 libbb/lib.a(xconnect.o)
 .text.xhost_and_af2sockaddr
                0x00053848        0x8 libbb/lib.a(xconnect.o)
                0x00053848                xhost_and_af2sockaddr
 .text.host2sockaddr
                0x00053850        0xc libbb/lib.a(xconnect.o)
                0x00053850                host2sockaddr
 .text.xhost2sockaddr
                0x0005385c        0xc libbb/lib.a(xconnect.o)
                0x0005385c                xhost2sockaddr
 .text.xdotted2sockaddr
                0x00053868        0xc libbb/lib.a(xconnect.o)
                0x00053868                xdotted2sockaddr
 .text.xsocket_type
                0x00053874       0x74 libbb/lib.a(xconnect.o)
                0x00053874                xsocket_type
 .text.create_and_bind_or_die
                0x000538e8       0x94 libbb/lib.a(xconnect.o)
 .text.create_and_bind_stream_or_die
                0x0005397c        0x8 libbb/lib.a(xconnect.o)
                0x0005397c                create_and_bind_stream_or_die
 .text.create_and_connect_stream_or_die
                0x00053984       0x48 libbb/lib.a(xconnect.o)
                0x00053984                create_and_connect_stream_or_die
 .text.xmalloc_sockaddr2host_noport
                0x000539cc        0x8 libbb/lib.a(xconnect.o)
                0x000539cc                xmalloc_sockaddr2host_noport
 .text.xmalloc_sockaddr2hostonly_noport
                0x000539d4        0x8 libbb/lib.a(xconnect.o)
                0x000539d4                xmalloc_sockaddr2hostonly_noport
 .text.xmalloc_sockaddr2dotted_noport
                0x000539dc        0x8 libbb/lib.a(xconnect.o)
                0x000539dc                xmalloc_sockaddr2dotted_noport
 .text.xgethostbyname
                0x000539e4       0x24 libbb/lib.a(xgethostbyname.o)
                0x000539e4                xgethostbyname
 .text          0x00053a08       0xc8 /projects/hnd/tools/linux/hndtools-arm-linux-2.6.36-uclibc-4.5.3/lib/gcc/arm-brcm-linux-uclibcgnueabi/4.5.3/libgcc.a(_udivsi3.o)
                0x00053a08                __udivsi3
                0x00053a08                __aeabi_uidiv
                0x00053ab0                __aeabi_uidivmod
 .text          0x00053ad0       0xfc /projects/hnd/tools/linux/hndtools-arm-linux-2.6.36-uclibc-4.5.3/lib/gcc/arm-brcm-linux-uclibcgnueabi/4.5.3/libgcc.a(_divsi3.o)
                0x00053ad0                __divsi3
                0x00053ad0                __aeabi_idiv
                0x00053bac                __aeabi_idivmod
 .text          0x00053bcc       0x1c /projects/hnd/tools/linux/hndtools-arm-linux-2.6.36-uclibc-4.5.3/lib/gcc/arm-brcm-linux-uclibcgnueabi/4.5.3/libgcc.a(_lshrdi3.o)
                0x00053bcc                __aeabi_llsr
                0x00053bcc                __lshrdi3
 .text          0x00053be8      0x3b8 /projects/hnd/tools/linux/hndtools-arm-linux-2.6.36-uclibc-4.5.3/lib/gcc/arm-brcm-linux-uclibcgnueabi/4.5.3/libgcc.a(_arm_addsubdf3.o)
                0x00053be8                __aeabi_drsub
                0x00053bf0                __subdf3
                0x00053bf0                __aeabi_dsub
                0x00053bf4                __adddf3
                0x00053bf4                __aeabi_dadd
                0x00053ea0                __aeabi_ui2d
                0x00053ea0                __floatunsidf
                0x00053ec4                __floatsidf
                0x00053ec4                __aeabi_i2d
                0x00053eec                __aeabi_f2d
                0x00053eec                __extendsfdf2
                0x00053f2c                __floatundidf
                0x00053f2c                __aeabi_ul2d
                0x00053f40                __floatdidf
                0x00053f40                __aeabi_l2d
 .text          0x00053fa0      0x470 /projects/hnd/tools/linux/hndtools-arm-linux-2.6.36-uclibc-4.5.3/lib/gcc/arm-brcm-linux-uclibcgnueabi/4.5.3/libgcc.a(_arm_muldivdf3.o)
                0x00053fa0                __muldf3
                0x00053fa0                __aeabi_dmul
                0x0005420c                __divdf3
                0x0005420c                __aeabi_ddiv
 .text          0x00054410      0x12c /projects/hnd/tools/linux/hndtools-arm-linux-2.6.36-uclibc-4.5.3/lib/gcc/arm-brcm-linux-uclibcgnueabi/4.5.3/libgcc.a(_arm_cmpdf2.o)
                0x00054410                __gtdf2
                0x00054410                __gedf2
                0x00054418                __ltdf2
                0x00054418                __ledf2
                0x00054420                __cmpdf2
                0x00054420                __nedf2
                0x00054420                __eqdf2
                0x000544a8                __aeabi_cdrcmple
                0x000544c4                __aeabi_cdcmple
                0x000544c4                __aeabi_cdcmpeq
                0x000544d8                __aeabi_dcmpeq
                0x000544ec                __aeabi_dcmplt
                0x00054500                __aeabi_dcmple
                0x00054514                __aeabi_dcmpge
                0x00054528                __aeabi_dcmpgt
 .text          0x0005453c       0x5c /projects/hnd/tools/linux/hndtools-arm-linux-2.6.36-uclibc-4.5.3/lib/gcc/arm-brcm-linux-uclibcgnueabi/4.5.3/libgcc.a(_arm_fixdfsi.o)
                0x0005453c                __fixdfsi
                0x0005453c                __aeabi_d2iz
 .text          0x00054598       0x54 /projects/hnd/tools/linux/hndtools-arm-linux-2.6.36-uclibc-4.5.3/lib/gcc/arm-brcm-linux-uclibcgnueabi/4.5.3/libgcc.a(_arm_fixunsdfsi.o)
                0x00054598                __fixunsdfsi
                0x00054598                __aeabi_d2uiz
 .text          0x000545ec       0x44 /projects/hnd/tools/linux/hndtools-arm-linux-2.6.36-uclibc-4.5.3/lib/gcc/arm-brcm-linux-uclibcgnueabi/4.5.3/libgcc.a(_aeabi_ldivmod.o)
                0x000545ec                __aeabi_ldivmod
 .text          0x00054630       0x3c /projects/hnd/tools/linux/hndtools-arm-linux-2.6.36-uclibc-4.5.3/lib/gcc/arm-brcm-linux-uclibcgnueabi/4.5.3/libgcc.a(_aeabi_uldivmod.o)
                0x00054630                __aeabi_uldivmod
 .text          0x0005466c       0x10 /projects/hnd/tools/linux/hndtools-arm-linux-2.6.36-uclibc-4.5.3/lib/gcc/arm-brcm-linux-uclibcgnueabi/4.5.3/libgcc.a(_dvmd_lnx.o)
                0x0005466c                __aeabi_idiv0
                0x0005466c                __aeabi_ldiv0
 .text          0x0005467c       0x78 /projects/hnd/tools/linux/hndtools-arm-linux-2.6.36-uclibc-4.5.3/lib/gcc/arm-brcm-linux-uclibcgnueabi/4.5.3/libgcc.a(bpabi.o)
                0x0005467c                __gnu_ldivmod_helper
                0x000546b8                __gnu_uldivmod_helper
 .text          0x000546f4      0x464 /projects/hnd/tools/linux/hndtools-arm-linux-2.6.36-uclibc-4.5.3/lib/gcc/arm-brcm-linux-uclibcgnueabi/4.5.3/libgcc.a(_divdi3.o)
                0x000546f4                __divdi3
 .text          0x00054b58      0x3fc /projects/hnd/tools/linux/hndtools-arm-linux-2.6.36-uclibc-4.5.3/lib/gcc/arm-brcm-linux-uclibcgnueabi/4.5.3/libgcc.a(_udivdi3.o)
                0x00054b58                __udivdi3
 .text          0x00054f54       0x28 /projects/hnd/tools/linux/hndtools-arm-linux-2.6.36-uclibc-4.5.3/arm-brcm-linux-uclibcgnueabi/sysroot/usr/lib/uclibc_nonshared.a(atexit.os)
                0x00054f54                atexit
 *(.gnu.warning)
 *(.glue_7t)
 .glue_7t       0x00000000        0x0 linker stubs
 *(.glue_7)
 .glue_7        0x00000000        0x0 linker stubs
 *(.vfp11_veneer)
 .vfp11_veneer  0x00000000        0x0 linker stubs
 *(.v4_bx)
 .v4_bx         0x00000000        0x0 linker stubs

.fini           0x00054f7c       0x10
 *(.fini)
 .fini          0x00054f7c        0xc /projects/hnd/tools/linux/hndtools-arm-linux-2.6.36-uclibc-4.5.3/arm-brcm-linux-uclibcgnueabi/sysroot/usr/lib/crti.o
                0x00054f7c                _fini
 .fini          0x00054f88        0x4 /projects/hnd/tools/linux/hndtools-arm-linux-2.6.36-uclibc-4.5.3/arm-brcm-linux-uclibcgnueabi/sysroot/usr/lib/crtn.o
                0x00054f8c                PROVIDE (__etext, .)
                0x00054f8c                PROVIDE (_etext, .)
                0x00054f8c                PROVIDE (etext, .)

.rodata         0x00054f8c     0xb7a3
 *(.rodata .rodata.* .gnu.linkonce.r.*)
 .rodata.config_file
                0x00054f8c       0x12 applets/built-in.o
 .rodata.mode_mask
                0x00054f9e       0x18 applets/built-in.o
 .rodata.str1.1
                0x00054fb6      0x4d7 applets/built-in.o
                                0x58c (size before relaxing)
 .rodata.packed_usage
                0x0005548d     0x25e2 applets/built-in.o
 .rodata.mode_chars.7013
                0x00057a6f        0xf applets/built-in.o
 *fill*         0x00057a7e        0x2 00
 .rodata.applets
                0x00057a80      0x504 applets/built-in.o
                0x00057a80                applets
 .rodata.str1.1
                0x00057f84       0x82 archival/lib.a(bbunzip.o)
                                 0x85 (size before relaxing)
 .rodata.extra_lbits
                0x00058006       0x1d archival/lib.a(gzip.o)
 .rodata.extra_blbits
                0x00058023       0x13 archival/lib.a(gzip.o)
 .rodata.str1.1
                0x00058036       0x15 archival/lib.a(gzip.o)
 .rodata.bl_order
                0x0005804b       0x13 archival/lib.a(gzip.o)
 .rodata.extra_dbits
                0x0005805e       0x1e archival/lib.a(gzip.o)
 .rodata.C.6.9060
                0x0005807c        0x8 archival/lib.a(tar.o)
 .rodata.C.7.9061
                0x00058084        0x8 archival/lib.a(tar.o)
 .rodata.prefilled.6880
                0x0005808c       0x30 archival/lib.a(tar.o)
 .rodata.str1.1
                0x000580bc      0x180 archival/lib.a(tar.o)
                                0x193 (size before relaxing)
 .rodata.tar_longopts
                0x0005823c       0x9d archival/lib.a(tar.o)
 .rodata.str1.1
                0x000582d9       0x1e archival/libunarchive/lib.a(check_header_gzip.o)
 .rodata.str1.1
                0x000582f7       0xc9 archival/libunarchive/lib.a(data_extract_all.o)
 .rodata.str1.1
                0x000583c0       0x8f archival/libunarchive/lib.a(decompress_uncompress.o)
 .rodata.cpdext
                0x0005844f       0x1e archival/libunarchive/lib.a(decompress_unzip.o)
 .rodata.cplext
                0x0005846d       0x1f archival/libunarchive/lib.a(decompress_unzip.o)
 .rodata.str1.1
                0x0005848c       0xb2 archival/libunarchive/lib.a(decompress_unzip.o)
                                 0xb8 (size before relaxing)
 .rodata.cpdist
                0x0005853e       0x3c archival/libunarchive/lib.a(decompress_unzip.o)
 .rodata.cplens
                0x0005857a       0x3e archival/libunarchive/lib.a(decompress_unzip.o)
 .rodata.border
                0x000585b8       0x13 archival/libunarchive/lib.a(decompress_unzip.o)
 *fill*         0x000585cb        0x1 00
 .rodata.mask_bits
                0x000585cc       0x22 archival/libunarchive/lib.a(decompress_unzip.o)
 .rodata.str1.1
                0x000585ee       0xb3 archival/libunarchive/lib.a(get_header_tar.o)
 .rodata.str1.1
                0x000586a1       0x13 archival/libunarchive/lib.a(get_header_tar_gz.o)
 .rodata.str1.1
                0x000586b4       0x36 archival/libunarchive/lib.a(header_verbose_list.o)
                                 0x37 (size before relaxing)
 .rodata.str1.1
                0x000586ea        0xc archival/libunarchive/lib.a(open_transformer.o)
 .rodata.str1.1
                0x000586f6        0xd archival/libunarchive/lib.a(seek_by_jump.o)
 .rodata.str1.1
                0x00058703        0x7 console-tools/lib.a(clear.o)
 .rodata.str1.1
                0x0005870a       0x13 console-tools/lib.a(reset.o)
 .rodata.str1.1
                0x00000000       0x13 coreutils/lib.a(cat.o)
                                  0x4 (size before relaxing)
 *fill*         0x0005871d        0x3 00
 .rodata.argv_dash.6638
                0x00058720        0x8 coreutils/lib.a(cat.o)
 .rodata.str1.1
                0x00058728       0x17 coreutils/lib.a(chmod.o)
                                 0x1a (size before relaxing)
 .rodata.str1.1
                0x0005873f       0x22 coreutils/lib.a(cp.o)
 .rodata.optstring
                0x00058761        0xb coreutils/lib.a(cut.o)
 .rodata._op_on_field
                0x0005876c       0x1f coreutils/lib.a(cut.o)
 .rodata.str1.1
                0x0005878b      0x11e coreutils/lib.a(cut.o)
                                0x124 (size before relaxing)
 .rodata.str1.1
                0x000588a9       0xa3 coreutils/lib.a(date.o)
                                 0xcd (size before relaxing)
 .rodata.str1.1
                0x0005894c       0xac coreutils/lib.a(df.o)
                                 0xb4 (size before relaxing)
 .rodata.str1.1
                0x000589f8       0x49 coreutils/lib.a(du.o)
                                 0x4e (size before relaxing)
 .rodata.str1.1
                0x00058a41        0x4 coreutils/lib.a(echo.o)
 .rodata.env_longopts
                0x00058a45       0x1e coreutils/lib.a(env.o)
 .rodata.str1.1
                0x00058a63       0x10 coreutils/lib.a(env.o)
                                 0x13 (size before relaxing)
 .rodata.keywords.6823
                0x00058a73       0x21 coreutils/lib.a(expr.o)
 .rodata.str1.1
                0x00058a94       0xdb coreutils/lib.a(expr.o)
                                 0xf8 (size before relaxing)
 *fill*         0x00058b6f        0x1 00
 .rodata.head_suffixes
                0x00058b70       0x20 coreutils/lib.a(head.o)
 .rodata.head_opts
                0x00058b90        0x7 coreutils/lib.a(head.o)
 .rodata.header_fmt_str
                0x00058b97        0xd coreutils/lib.a(head.o)
 .rodata.str1.1
                0x00000000        0x5 coreutils/lib.a(head.o)
 .rodata.str1.1
                0x00058ba4        0x5 coreutils/lib.a(hostid.o)
 .rodata.str1.1
                0x00058ba9       0x34 coreutils/lib.a(id.o)
 .rodata.str1.1
                0x00058bdd        0x7 coreutils/lib.a(ln.o)
                                 0x11 (size before relaxing)
 .rodata        0x00058be4       0x33 coreutils/lib.a(ls.o)
 *fill*         0x00058c17        0x1 00
 .rodata.opt_flags
                0x00058c18       0x70 coreutils/lib.a(ls.o)
 .rodata.ls_options
                0x00058c88       0x1e coreutils/lib.a(ls.o)
 .rodata.ls_color_opt
                0x00058ca6        0x9 coreutils/lib.a(ls.o)
 .rodata.str1.1
                0x00058caf       0x90 coreutils/lib.a(ls.o)
                                 0xaa (size before relaxing)
 *fill*         0x00058d3f        0x1 00
 .rodata.dotdir.6912
                0x00058d40        0x4 coreutils/lib.a(ls.o)
 .rodata.str1.1
                0x00058d44        0x8 coreutils/lib.a(md5_sha1_sum.o)
                                  0xa (size before relaxing)
 .rodata.str1.1
                0x00058d4c       0x16 coreutils/lib.a(mkdir.o)
 .rodata.str1.1
                0x00000000        0x3 coreutils/lib.a(mkfifo.o)
 .rodata.modes_chars
                0x00058d62        0x8 coreutils/lib.a(mknod.o)
 .rodata.str1.1
                0x00000000        0x3 coreutils/lib.a(mknod.o)
 *fill*         0x00058d6a        0x2 00
 .rodata.modes_cubp
                0x00058d6c        0xc coreutils/lib.a(mknod.o)
 .rodata.str1.1
                0x00058d78       0x48 coreutils/lib.a(mv.o)
                                 0x4c (size before relaxing)
 .rodata.fmt    0x00058dc0       0x2e coreutils/lib.a(mv.o)
 .rodata.str1.1
                0x00058dee       0x10 coreutils/lib.a(nice.o)
                                 0x17 (size before relaxing)
 .rodata.str1.1
                0x00058dfe        0x5 coreutils/lib.a(printf.o)
                                  0x9 (size before relaxing)
 .rodata.str1.1
                0x00058e03       0x1f coreutils/lib.a(rm.o)
                                 0x27 (size before relaxing)
 .rodata.str1.1
                0x00000000       0x1f coreutils/lib.a(rmdir.o)
                                  0x7 (size before relaxing)
 *fill*         0x00058e22        0x2 00
 .rodata.sfx    0x00058e24       0x28 coreutils/lib.a(sleep.o)
 .rodata.header_fmt
                0x00058e4c        0xd coreutils/lib.a(tail.o)
 .rodata.str1.1
                0x00058e59       0x18 coreutils/lib.a(tail.o)
 *fill*         0x00058e71        0x3 00
 .rodata.tail_suffixes
                0x00058e74       0x20 coreutils/lib.a(tail.o)
 .rodata.str1.1
                0x00058e94       0x6a coreutils/lib.a(test.o)
                                 0x74 (size before relaxing)
 *fill*         0x00058efe        0x2 00
 .rodata.ops    0x00058f00       0xf0 coreutils/lib.a(test.o)
 .rodata.str1.1
                0x00000000       0x6a coreutils/lib.a(touch.o)
                                  0x5 (size before relaxing)
 .rodata.str1.1
                0x00058ff0       0x18 coreutils/lib.a(tr.o)
 .rodata.classes.6655
                0x00059008       0x49 coreutils/lib.a(tr.o)
 .rodata.options
                0x00059051        0x8 coreutils/lib.a(uname.o)
 *fill*         0x00059059        0x1 00
 .rodata.utsname_offset
                0x0005905a        0xc coreutils/lib.a(uname.o)
 .rodata.str1.1
                0x00059066       0x17 coreutils/lib.a(uname.o)
                                 0x1f (size before relaxing)
 .rodata.str1.1
                0x0005907d       0x11 coreutils/lib.a(wc.o)
                                 0x27 (size before relaxing)
 .rodata.str1.1
                0x00000000       0x11 coreutils/lib.a(yes.o)
                                  0x2 (size before relaxing)
 .rodata.str1.1
                0x0005908e       0x11 coreutils/libcoreutils/lib.a(cp_mv_stat.o)
 .rodata.str1.1
                0x00000000       0x11 coreutils/libcoreutils/lib.a(getopt_mk_fifo_nod.o)
                                  0x3 (size before relaxing)
 *fill*         0x0005909f        0x1 00
 .rodata.PRIMES
                0x000590a0        0xa editors/lib.a(awk.o)
 .rodata.EMSG_NOT_ARRAY
                0x000590aa        0xd editors/lib.a(awk.o)
 .rodata.EMSG_POSSIBLE_ERROR
                0x000590b7       0x16 editors/lib.a(awk.o)
 *fill*         0x000590cd        0x3 00
 .rodata.tokeninfo
                0x000590d0      0x18c editors/lib.a(awk.o)
 .rodata.str1.1
                0x0005925c       0xc9 editors/lib.a(awk.o)
                                 0xdc (size before relaxing)
 .rodata.EMSG_INTERNAL_ERROR
                0x00059325        0xf editors/lib.a(awk.o)
 .rodata.EMSG_TOO_FEW_ARGS
                0x00059334       0x1e editors/lib.a(awk.o)
 .rodata.vValues
                0x00059352       0x18 editors/lib.a(awk.o)
 .rodata.EMSG_UNEXP_EOS
                0x0005936a       0x19 editors/lib.a(awk.o)
 .rodata.EMSG_DIV_BY_ZERO
                0x00059383       0x11 editors/lib.a(awk.o)
 .rodata.tokenlist
                0x00059394      0x1b9 editors/lib.a(awk.o)
 .rodata.EMSG_UNEXP_TOKEN
                0x0005954d       0x11 editors/lib.a(awk.o)
 .rodata.EMSG_UNDEF_FUNC
                0x0005955e       0x1b editors/lib.a(awk.o)
 .rodata.EMSG_INV_FMT
                0x00059579       0x19 editors/lib.a(awk.o)
 .rodata.vNames
                0x00059592       0x6b editors/lib.a(awk.o)
 .rodata.str1.1
                0x000595fd      0x1ce editors/lib.a(sed.o)
                                0x1dd (size before relaxing)
 .rodata.semicolon_whitespace
                0x000597cb        0x7 editors/lib.a(sed.o)
 .rodata.CMup   0x000597d2        0x4 editors/lib.a(vi.o)
 .rodata.Ceol   0x000597d6        0x5 editors/lib.a(vi.o)
 .rodata.bell   0x000597db        0x2 editors/lib.a(vi.o)
 .rodata.SOn    0x000597dd        0x5 editors/lib.a(vi.o)
 .rodata.Ceos   0x000597e2        0x5 editors/lib.a(vi.o)
 .rodata.SOs    0x000597e7        0x5 editors/lib.a(vi.o)
 .rodata.esccmds.7371
                0x000597ec      0x108 editors/lib.a(vi.o)
 .rodata.CMrc   0x000598f4        0x9 editors/lib.a(vi.o)
 .rodata.CMdown
                0x000598fd        0x2 editors/lib.a(vi.o)
 .rodata.str1.1
                0x000598ff      0x6ca editors/lib.a(vi.o)
                                0x71c (size before relaxing)
 .rodata.options.7082
                0x00059fc9       0x19 findutils/lib.a(find.o)
 .rodata.params.7033
                0x00059fe2       0x82 findutils/lib.a(find.o)
 .rodata.find_suffixes.7070
                0x0005a064       0x30 findutils/lib.a(find.o)
 .rodata.str1.1
                0x0005a094       0x41 findutils/lib.a(find.o)
                                 0x61 (size before relaxing)
 .rodata.str1.1
                0x0005a0d5       0x49 findutils/lib.a(grep.o)
                                 0x57 (size before relaxing)
 .rodata.str1.1
                0x0005a11e       0x9e findutils/lib.a(xargs.o)
                                 0xa8 (size before relaxing)
 .rodata.str1.1
                0x0005a1bc        0xb init/lib.a(halt.o)
                                  0xe (size before relaxing)
 *fill*         0x0005a1c7        0x1 00
 .rodata.signals.6645
                0x0005a1c8        0xc init/lib.a(halt.o)
 .rodata.str1.1
                0x0005a1d4       0x3e libbb/lib.a(bb_pwd.o)
                                 0x42 (size before relaxing)
 .rodata.str1.1
                0x0005a212        0x7 libbb/lib.a(concat_path_file.o)
                                  0xa (size before relaxing)
 .rodata.str1.1
                0x0005a219      0x14a libbb/lib.a(copy_file.o)
                                0x18c (size before relaxing)
 .rodata.str1.1
                0x00000000        0xb libbb/lib.a(copyfd.o)
 .rodata.str1.1
                0x00000000        0x2 libbb/lib.a(find_mount_point.o)
 .rodata.str1.1
                0x00000000      0x14a libbb/lib.a(find_root_device.o)
                                  0x5 (size before relaxing)
 .rodata.str1.1
                0x0005a363        0x4 libbb/lib.a(getopt32.o)
 *fill*         0x0005a367        0x1 00
 .rodata.bb_null_long_options
                0x0005a368       0x10 libbb/lib.a(getopt32.o)
 .rodata.fmt.6641
                0x0005a378        0x5 libbb/lib.a(human_readable.o)
 .rodata.zero_and_units.6640
                0x0005a37d        0x6 libbb/lib.a(human_readable.o)
 .rodata.fmt_tenths.6642
                0x0005a383        0xa libbb/lib.a(human_readable.o)
 .rodata.str1.1
                0x00000000        0x1 libbb/lib.a(inode_hash.o)
 .rodata.str1.1
                0x0005a38d       0x33 libbb/lib.a(make_directory.o)
 .rodata.S_array.6646
                0x0005a3c0       0x10 libbb/lib.a(md5.o)
 .rodata.C_array.6644
                0x0005a3d0      0x100 libbb/lib.a(md5.o)
 .rodata.P_array.6645
                0x0005a4d0       0x40 libbb/lib.a(md5.o)
 .rodata.bb_msg_memory_exhausted
                0x0005a510       0x14 libbb/lib.a(messages.o)
                0x0005a510                bb_msg_memory_exhausted
 .rodata.bb_hexdigits_upcase
                0x0005a524       0x14 libbb/lib.a(messages.o)
                0x0005a524                bb_hexdigits_upcase
 .rodata.bb_banner
                0x0005a538       0x2c libbb/lib.a(messages.o)
                0x0005a538                bb_banner
 .rodata.bb_msg_perm_denied_are_you_root
                0x0005a564       0x24 libbb/lib.a(messages.o)
                0x0005a564                bb_msg_perm_denied_are_you_root
 .rodata.bb_path_shadow_file
                0x0005a588        0xc libbb/lib.a(messages.o)
                0x0005a588                bb_path_shadow_file
 .rodata.bb_path_group_file
                0x0005a594        0xc libbb/lib.a(messages.o)
                0x0005a594                bb_path_group_file
 .rodata.bb_msg_can_not_create_raw_socket
                0x0005a5a0       0x18 libbb/lib.a(messages.o)
                0x0005a5a0                bb_msg_can_not_create_raw_socket
 .rodata.bb_msg_read_error
                0x0005a5b8        0xc libbb/lib.a(messages.o)
                0x0005a5b8                bb_msg_read_error
 .rodata.bb_dev_null
                0x0005a5c4        0xc libbb/lib.a(messages.o)
                0x0005a5c4                bb_dev_null
 .rodata.bb_path_gshadow_file
                0x0005a5d0       0x10 libbb/lib.a(messages.o)
                0x0005a5d0                bb_path_gshadow_file
 .rodata.bb_msg_write_error
                0x0005a5e0        0xc libbb/lib.a(messages.o)
                0x0005a5e0                bb_msg_write_error
 .rodata.bb_path_passwd_file
                0x0005a5ec        0xc libbb/lib.a(messages.o)
                0x0005a5ec                bb_path_passwd_file
 .rodata.bb_msg_requires_arg
                0x0005a5f8       0x18 libbb/lib.a(messages.o)
                0x0005a5f8                bb_msg_requires_arg
 .rodata.bb_msg_standard_output
                0x0005a610       0x10 libbb/lib.a(messages.o)
                0x0005a610                bb_msg_standard_output
 .rodata.bb_msg_standard_input
                0x0005a620       0x10 libbb/lib.a(messages.o)
                0x0005a620                bb_msg_standard_input
 .rodata.bb_str_default
                0x0005a630        0x8 libbb/lib.a(messages.o)
                0x0005a630                bb_str_default
 .rodata.bb_msg_invalid_date
                0x0005a638       0x14 libbb/lib.a(messages.o)
                0x0005a638                bb_msg_invalid_date
 .rodata.bb_default_login_shell
                0x0005a64c        0xc libbb/lib.a(messages.o)
                0x0005a64c                bb_default_login_shell
 .rodata.bb_msg_invalid_arg
                0x0005a658       0x20 libbb/lib.a(messages.o)
                0x0005a658                bb_msg_invalid_arg
 .rodata.const_int_1
                0x0005a678        0x4 libbb/lib.a(messages.o)
                0x0005a678                const_int_1
 .rodata.bb_PATH_root_path
                0x0005a67c       0x24 libbb/lib.a(messages.o)
                0x0005a67c                bb_PATH_root_path
 .rodata.type_chars
                0x0005a6a0       0x10 libbb/lib.a(mode_string.o)
 .rodata.mode_chars
                0x0005a6b0        0x8 libbb/lib.a(mode_string.o)
 .rodata.bb_path_mtab_file
                0x0005a6b8       0x10 libbb/lib.a(mtab_file.o)
                0x0005a6b8                bb_path_mtab_file
 .rodata.who_chars.6641
                0x0005a6c8        0x5 libbb/lib.a(parse_mode.o)
 *fill*         0x0005a6cd        0x3 00
 .rodata.perm_mask.6640
                0x0005a6d0       0x18 libbb/lib.a(parse_mode.o)
 .rodata.who_mask.6639
                0x0005a6e8       0x10 libbb/lib.a(parse_mode.o)
 .rodata.perm_chars.6642
                0x0005a6f8        0x7 libbb/lib.a(parse_mode.o)
 .rodata.charmap.6638
                0x0005a6ff       0x12 libbb/lib.a(process_escape_sequence.o)
 .rodata.str1.1
                0x0005a711       0x1a libbb/lib.a(procps.o)
                                 0x34 (size before relaxing)
 .rodata.str1.1
                0x00000000       0x10 libbb/lib.a(read.o)
 .rodata.str1.1
                0x00000000        0x3 libbb/lib.a(recursive_action.o)
 .rodata.str1.1
                0x0005a72b       0x63 libbb/lib.a(remove_file.o)
                                 0x99 (size before relaxing)
 .rodata.str1.1
                0x00000000        0x6 libbb/lib.a(verror_msg.o)
 .rodata.str1.1
                0x00000000       0x63 libbb/lib.a(vfork_daemon_rexec.o)
                                  0xa (size before relaxing)
 .rodata.str1.1
                0x00000000        0x3 libbb/lib.a(wfopen.o)
 .rodata.str1.1
                0x00000000        0x2 libbb/lib.a(wfopen_input.o)
 .rodata.str1.1
                0x0005a78e       0x5e libbb/lib.a(xatonum.o)
 .rodata.str1.1
                0x0005a7ec      0x11b libbb/lib.a(xfuncs.o)
                                0x122 (size before relaxing)
 .rodata.str1.1
                0x0005a907        0x7 libbb/lib.a(xgetcwd.o)
 .rodata.str1.1
                0x0005a90e       0x26 libbb/lib.a(xreadlink.o)
 .rodata.str1.1
                0x0005a934        0xd libbb/lib.a(xregcomp.o)
 .rodata.str1.1
                0x0005a941       0x40 loginutils/lib.a(addgroup.o)
                                 0x42 (size before relaxing)
 .rodata.str1.1
                0x0005a981       0xe4 loginutils/lib.a(adduser.o)
                                 0xf0 (size before relaxing)
 .rodata.prog.6661
                0x0005aa65        0x7 loginutils/lib.a(adduser.o)
 .rodata.str1.1
                0x0005aa6c       0x14 loginutils/lib.a(deluser.o)
                                 0x1d (size before relaxing)
 .rodata.str1.1
                0x0005aa80      0x191 loginutils/lib.a(passwd.o)
                                0x195 (size before relaxing)
 .rodata.str1.1
                0x0005ac11       0x30 loginutils/lib.a(su.o)
                                 0x35 (size before relaxing)
 .rodata.DowAry
                0x0005ac41       0x16 miscutils/lib.a(crond.o)
 .rodata.str1.1
                0x0005ac57      0x276 miscutils/lib.a(crond.o)
                                0x285 (size before relaxing)
 .rodata.MonAry
                0x0005aecd       0x25 miscutils/lib.a(crond.o)
 .rodata.str1.1
                0x0005aef2      0x102 miscutils/lib.a(crontab.o)
                                0x180 (size before relaxing)
 .rodata.controls
                0x0005aff4       0x21 miscutils/lib.a(less.o)
 .rodata.ctrlconv
                0x0005b015       0x21 miscutils/lib.a(less.o)
 .rodata.str1.1
                0x0005b036       0xed miscutils/lib.a(less.o)
                                0x103 (size before relaxing)
 .rodata.symprefix.7786
                0x0005b123        0xa modutils/lib.a(insmod.o)
 *fill*         0x0005b12d        0x3 00
 .rodata.gpl_licenses.7741
                0x0005b130       0x14 modutils/lib.a(insmod.o)
 .rodata.section_names.7800
                0x0005b144       0x14 modutils/lib.a(insmod.o)
 .rodata.specials.7730
                0x0005b158       0x10 modutils/lib.a(insmod.o)
 .rodata.str1.1
                0x0005b168      0x817 modutils/lib.a(insmod.o)
                                0x83c (size before relaxing)
 .rodata.tainted_file.7768
                0x0005b97f       0x19 modutils/lib.a(insmod.o)
 .rodata.str1.1
                0x0005b998       0x87 modutils/lib.a(lsmod.o)
                                 0x98 (size before relaxing)
 .rodata.str1.1
                0x0005ba1f        0x4 modutils/lib.a(rmmod.o)
                                  0xd (size before relaxing)
 .rodata.options
                0x0005ba23       0x2e networking/lib.a(arp.o)
 .rodata.str1.1
                0x0005ba51      0x21c networking/lib.a(arp.o)
                                0x22a (size before relaxing)
 .rodata.str1.1
                0x0005bc6d       0x13 networking/lib.a(hostname.o)
                                 0x1a (size before relaxing)
 .rodata.OptArray
                0x0005bc80       0xb0 networking/lib.a(ifconfig.o)
 .rodata.str1.1
                0x0005bd30      0x12c networking/lib.a(ifconfig.o)
                                0x145 (size before relaxing)
 .rodata.Arg1Opt
                0x0005be5c       0xa8 networking/lib.a(ifconfig.o)
 .rodata.hwtypes
                0x0005bf04       0x18 networking/lib.a(interface.o)
 .rodata.ppp_hwtype
                0x0005bf1c       0x20 networking/lib.a(interface.o)
 .rodata.sit_hwtype
                0x0005bf3c       0x20 networking/lib.a(interface.o)
 .rodata.ife_print_flags_mask.7069
                0x0005bf5c       0x1a networking/lib.a(interface.o)
 *fill*         0x0005bf76        0x2 00
 .rodata.unspec_aftype
                0x0005bf78       0x2c networking/lib.a(interface.o)
 .rodata.inet_aftype
                0x0005bfa4       0x2c networking/lib.a(interface.o)
 .rodata.loop_hwtype
                0x0005bfd0       0x20 networking/lib.a(interface.o)
 .rodata.ether_hwtype
                0x0005bff0       0x20 networking/lib.a(interface.o)
 .rodata.str1.1
                0x0005c010      0x445 networking/lib.a(interface.o)
                                0x484 (size before relaxing)
 .rodata.TRext  0x0005c455        0xf networking/lib.a(interface.o)
 .rodata.inet6_aftype
                0x0005c464       0x2c networking/lib.a(interface.o)
 .rodata.ss_fmt
                0x0005c490        0xc networking/lib.a(interface.o)
 .rodata.ife_print_flags_strs.7068
                0x0005c49c       0x6a networking/lib.a(interface.o)
 *fill*         0x0005c506        0x2 00
 .rodata.aftypes
                0x0005c508       0x10 networking/lib.a(interface.o)
 .rodata.if_port_text
                0x0005c518       0x20 networking/lib.a(interface.o)
 .rodata.unspec_hwtype
                0x0005c538       0x20 networking/lib.a(interface.o)
 .rodata.keywords.7537
                0x0005c558       0x25 networking/lib.a(ip.o)
 *fill*         0x0005c57d        0x3 00
 .rodata.tcp_state
                0x0005c580       0x30 networking/lib.a(netstat.o)
 .rodata.CSWTCH.59
                0x0005c5b0       0x14 networking/lib.a(netstat.o)
 .rodata.CSWTCH.63
                0x0005c5c4       0x1c networking/lib.a(netstat.o)
 .rodata.str1.1
                0x0005c5e0      0x437 networking/lib.a(netstat.o)
                                0x469 (size before relaxing)
 .rodata.str1.1
                0x0005ca17       0x3c networking/lib.a(nslookup.o)
                                 0x3d (size before relaxing)
 *fill*         0x0005ca53        0x1 00
 .rodata.CSWTCH.44
                0x0005ca54       0x4c networking/lib.a(ping.o)
 .rodata.str1.1
                0x0005caa0      0x2e1 networking/lib.a(ping.o)
 .rodata.tbl_verb
                0x0005cd81       0x15 networking/lib.a(route.o)
 *fill*         0x0005cd96        0x2 00
 .rodata.flagvals
                0x0005cd98       0x20 networking/lib.a(route.o)
 .rodata.flags_ipvx
                0x0005cdb8       0x10 networking/lib.a(route.o)
 .rodata.str1.1
                0x0005cdc8      0x233 networking/lib.a(route.o)
                                0x249 (size before relaxing)
 .rodata.tbl_ipvx
                0x0005cffb       0x68 networking/lib.a(route.o)
 .rodata.flagchars
                0x0005d063        0x9 networking/lib.a(route.o)
 .rodata.tbl_hash_net_host
                0x0005d06c        0xf networking/lib.a(route.o)
 .rodata.str1.1
                0x0005d07b       0xed networking/lib.a(telnet.o)
                                0x104 (size before relaxing)
 .rodata.escapecharis
                0x0005d168       0x17 networking/lib.a(telnet.o)
 .rodata.str1.1
                0x0005d17f       0x54 networking/lib.a(telnetd.o)
                                 0x59 (size before relaxing)
 *fill*         0x0005d1d3        0x1 00
 .rodata.errcode_str.6687
                0x0005d1d4       0x24 networking/lib.a(tftp.o)
 .rodata.str1.1
                0x0005d1f8       0xe3 networking/lib.a(tftp.o)
                                 0xf1 (size before relaxing)
 .rodata.str1.1
                0x0005d2db       0x10 networking/libiproute/lib.a(ip_parse_common_args.o)
                                 0x13 (size before relaxing)
 .rodata.ip_common_commands.7493
                0x0005d2eb       0x2b networking/libiproute/lib.a(ip_parse_common_args.o)
 .rodata.option.7731
                0x0005d316       0x17 networking/libiproute/lib.a(ipaddress.o)
 .rodata.str1.1
                0x0005d32d      0x265 networking/libiproute/lib.a(ipaddress.o)
                                0x28e (size before relaxing)
 .rodata.commands.7830
                0x0005d592       0x20 networking/libiproute/lib.a(ipaddress.o)
 .rodata.option.7781
                0x0005d5b2       0x39 networking/libiproute/lib.a(ipaddress.o)
 .rodata.keywords.7710
                0x0005d5eb       0x30 networking/libiproute/lib.a(iplink.o)
 .rodata.str1.1
                0x0005d61b       0x5b networking/libiproute/lib.a(iplink.o)
                                 0x83 (size before relaxing)
 .rodata.keywords.7734
                0x0005d676       0x13 networking/libiproute/lib.a(iplink.o)
 .rodata.str1.1
                0x0005d689      0x154 networking/libiproute/lib.a(iproute.o)
                                0x1df (size before relaxing)
 .rodata.options.7705
                0x0005d7dd       0x26 networking/libiproute/lib.a(iproute.o)
 .rodata.fn.7653
                0x0005d803       0x1f networking/libiproute/lib.a(iproute.o)
 .rodata.keywords.7667
                0x0005d822       0x43 networking/libiproute/lib.a(iproute.o)
 .rodata.keywords.7600
                0x0005d865       0x33 networking/libiproute/lib.a(iproute.o)
 .rodata.ip_route_commands.7728
                0x0005d898       0x47 networking/libiproute/lib.a(iproute.o)
 .rodata.ip_rule_commands.7658
                0x0005d8df       0x16 networking/libiproute/lib.a(iprule.o)
 .rodata.str1.1
                0x0005d8f5       0x94 networking/libiproute/lib.a(iprule.o)
                                 0xc2 (size before relaxing)
 .rodata.keywords.7617
                0x0005d989       0x5f networking/libiproute/lib.a(iprule.o)
 .rodata.keywords.7969
                0x0005d9e8       0x21 networking/libiproute/lib.a(iptunnel.o)
 .rodata.str1.1
                0x0005da09      0x2dd networking/libiproute/lib.a(iptunnel.o)
                                0x30d (size before relaxing)
 .rodata.keywords.7832
                0x0005dce6       0x9b networking/libiproute/lib.a(iptunnel.o)
 .rodata.str1.1
                0x0005dd81      0x13e networking/libiproute/lib.a(libnetlink.o)
 .rodata.str1.1
                0x0005debf       0x1d networking/libiproute/lib.a(ll_addr.o)
                                 0x20 (size before relaxing)
 .rodata.str1.1
                0x0005dedc       0x1d networking/libiproute/lib.a(ll_map.o)
                                 0x1f (size before relaxing)
 *fill*         0x0005def9        0x3 00
 .rodata.arphrd_names.7140
                0x0005defc      0x1f0 networking/libiproute/lib.a(ll_types.o)
 .rodata.str1.1
                0x0005e0ec      0x147 networking/libiproute/lib.a(ll_types.o)
                                0x179 (size before relaxing)
 *fill*         0x0005e233        0x1 00
 .rodata.init_tab.6711
                0x0005e234       0x34 networking/libiproute/lib.a(rt_names.o)
 .rodata.str1.1
                0x0005e268      0x107 networking/libiproute/lib.a(rt_names.o)
                                0x141 (size before relaxing)
 .rodata.keywords.7517
                0x0005e36f       0x61 networking/libiproute/lib.a(rtm_map.o)
 .rodata.str1.1
                0x0005e3d0       0x3a networking/libiproute/lib.a(rtm_map.o)
                                 0x64 (size before relaxing)
 .rodata.str1.1
                0x0005e40a      0x122 networking/libiproute/lib.a(utils.o)
                                0x12a (size before relaxing)
 .rodata.str1.1
                0x0005e52c       0x6a procps/lib.a(free.o)
                                 0x7d (size before relaxing)
 .rodata.str1.1
                0x0005e596       0x93 procps/lib.a(kill.o)
                                 0x97 (size before relaxing)
 .rodata.str1.1
                0x00000000       0x93 procps/lib.a(pidof.o)
                                  0x5 (size before relaxing)
 .rodata.str1.1
                0x0005e629       0x4d procps/lib.a(ps.o)
                                 0x4f (size before relaxing)
 .rodata.ERR_NO_EQUALS
                0x0005e676       0x2c procps/lib.a(sysctl.o)
 .rodata.WARN_BAD_LINE
                0x0005e6a2       0x30 procps/lib.a(sysctl.o)
 .rodata.ERR_PRELOAD_FILE
                0x0005e6d2       0x26 procps/lib.a(sysctl.o)
 .rodata.PROC_PATH
                0x0005e6f8        0xb procps/lib.a(sysctl.o)
 .rodata.ERR_MALFORMED_SETTING
                0x0005e703       0x1f procps/lib.a(sysctl.o)
 .rodata.str1.1
                0x0005e722       0x11 procps/lib.a(sysctl.o)
                                 0x1a (size before relaxing)
 .rodata.ERR_UNKNOWN_PARAMETER
                0x0005e733       0x1f procps/lib.a(sysctl.o)
 .rodata.ERR_UNKNOWN_WRITING
                0x0005e752       0x2a procps/lib.a(sysctl.o)
 .rodata.ERR_INVALID_KEY
                0x0005e77c       0x1f procps/lib.a(sysctl.o)
 .rodata.ERR_PERMISSION_DENIED
                0x0005e79b       0x26 procps/lib.a(sysctl.o)
 .rodata.DEFAULT_PRELOAD
                0x0005e7c1       0x11 procps/lib.a(sysctl.o)
 .rodata.ERR_UNKNOWN_READING
                0x0005e7d2       0x2a procps/lib.a(sysctl.o)
 .rodata.str1.1
                0x0005e7fc      0x1d5 procps/lib.a(top.o)
                                0x1fa (size before relaxing)
 .rodata.str1.1
                0x0005e9d1       0x62 procps/lib.a(uptime.o)
                                 0x65 (size before relaxing)
 .rodata        0x0005ea33       0x66 shell/lib.a(ash.o)
 .rodata.qchars.7971
                0x0005ea99        0x3 shell/lib.a(ash.o)
 .rodata.CSWTCH.780
                0x0005ea9c       0x30 shell/lib.a(ash.o)
 .rodata.CSWTCH.771
                0x0005eacc        0x8 shell/lib.a(ash.o)
 .rodata.tokname_array
                0x0005ead4       0x74 shell/lib.a(ash.o)
 .rodata.spec_symbls.7302
                0x0005eb48       0x1b shell/lib.a(ash.o)
 .rodata.permmode.9831
                0x0005eb63        0x3 shell/lib.a(ash.o)
 .rodata.xxreadtoken_chars
                0x0005eb66        0x7 shell/lib.a(ash.o)
 .rodata.xxreadtoken_tokens
                0x0005eb6d        0xa shell/lib.a(ash.o)
 .rodata.str1.1
                0x0005eb77      0x9cb shell/lib.a(ash.o)
                                0xa8e (size before relaxing)
 .rodata.defifsvar
                0x0005f542        0x8 shell/lib.a(ash.o)
 *fill*         0x0005f54a        0x2 00
 .rodata.vstype.7731
                0x0005f54c       0x40 shell/lib.a(ash.o)
 .rodata.optletters_optnames
                0x0005f58c       0x38 shell/lib.a(ash.o)
 .rodata.permuser.9830
                0x0005f5c4        0x3 shell/lib.a(ash.o)
 *fill*         0x0005f5c7        0x1 00
 .rodata.nodesize
                0x0005f5c8       0x34 shell/lib.a(ash.o)
 .rodata.S_I_T  0x0005f5fc       0x30 shell/lib.a(ash.o)
 .rodata.bltin.9001
                0x0005f62c        0x8 shell/lib.a(ash.o)
 .rodata.limits
                0x0005f634       0xc0 shell/lib.a(ash.o)
 .rodata.timescmd_str
                0x0005f6f4        0x9 shell/lib.a(ash.o)
 .rodata.spclchars.8104
                0x0005f6fd        0xa shell/lib.a(ash.o)
 .rodata.homestr
                0x0005f707        0x5 shell/lib.a(ash.o)
 .rodata.op_tokens
                0x0005f70c       0x8d shell/lib.a(ash.o)
 *fill*         0x0005f799        0x3 00
 .rodata.builtintab
                0x0005f79c      0x150 shell/lib.a(ash.o)
 .rodata.permmask.9832
                0x0005f8ec       0x12 shell/lib.a(ash.o)
 .rodata.snlfmt
                0x0005f8fe        0x4 shell/lib.a(ash.o)
 .rodata.dolatstr
                0x0005f902        0x5 shell/lib.a(ash.o)
 .rodata.illnum
                0x0005f907       0x13 shell/lib.a(ash.o)
 .rodata.types.9506
                0x0005f91a        0x6 shell/lib.a(ash.o)
 .rodata.syntax_index_table.7303
                0x0005f920       0x1a shell/lib.a(ash.o)
 .rodata.metachars.8360
                0x0005f93a        0x4 shell/lib.a(ash.o)
 .rodata.str1.1
                0x0005f93e       0x56 sysklogd/lib.a(klogd.o)
                                 0x60 (size before relaxing)
 .rodata.str1.1
                0x0005f994       0x82 sysklogd/lib.a(logread.o)
                                 0x84 (size before relaxing)
 *fill*         0x0005fa16        0x2 00
 .rodata.prioritynames
                0x0005fa18       0x68 sysklogd/lib.a(syslogd.o)
                0x0005fa18                prioritynames
 .rodata.str1.1
                0x0005fa80      0x192 sysklogd/lib.a(syslogd.o)
                                0x1d7 (size before relaxing)
 *fill*         0x0005fc12        0x2 00
 .rodata.facilitynames
                0x0005fc14       0xb8 sysklogd/lib.a(syslogd.o)
                0x0005fc14                facilitynames
 .rodata.init_data
                0x0005fccc       0x48 sysklogd/lib.a(syslogd.o)
 .rodata.str1.1
                0x0005fd14        0xe util-linux/lib.a(dmesg.o)
 .rodata.str1.1
                0x0005fd22       0x5e util-linux/lib.a(more.o)
                                 0x6a (size before relaxing)
 .rodata.nfs_errtbl
                0x0005fd80       0xa0 util-linux/lib.a(mount.o)
 .rodata.filesystems.7386
                0x0005fe20       0x24 util-linux/lib.a(mount.o)
 .rodata.options.7648
                0x0005fe44       0xa1 util-linux/lib.a(mount.o)
 .rodata.str1.1
                0x0005fee5      0x2eb util-linux/lib.a(mount.o)
                                0x37f (size before relaxing)
 .rodata.options.7673
                0x000601d0       0x30 util-linux/lib.a(mount.o)
 .rodata.mount_options
                0x00060200       0xf8 util-linux/lib.a(mount.o)
 .rodata.str1.1
                0x000602f8       0x7f util-linux/lib.a(rdate.o)
                                 0x8e (size before relaxing)
 .rodata.str1.1
                0x00060377       0x81 util-linux/lib.a(umount.o)
                                 0x83 (size before relaxing)
 .rodata.str1.1
                0x000603f8       0x12 libbb/lib.a(change_identity.o)
                                 0x15 (size before relaxing)
 .rodata.str1.1
                0x0006040a        0xe libbb/lib.a(correct_password.o)
 .rodata.str1.1
                0x00060418        0xa libbb/lib.a(create_icmp6_socket.o)
 .rodata.str1.1
                0x00000000        0xa libbb/lib.a(create_icmp_socket.o)
                                  0x5 (size before relaxing)
 .rodata.str1.1
                0x00060422       0x27 libbb/lib.a(inet_common.o)
                                 0x29 (size before relaxing)
 .rodata.str1.1
                0x00060449       0x1e libbb/lib.a(kernel_version.o)
                                 0x20 (size before relaxing)
 .rodata.str1.1
                0x00060467       0x41 libbb/lib.a(lineedit.o)
                                 0x4d (size before relaxing)
 .rodata.fmtstr_d
                0x000604a8        0xd libbb/lib.a(login.o)
 .rodata.str1.1
                0x000604b5        0x9 libbb/lib.a(login.o)
                                  0xd (size before relaxing)
 .rodata.fmtstr_t
                0x000604be        0x9 libbb/lib.a(login.o)
 .rodata.str1.1
                0x000604c7       0x13 libbb/lib.a(loop.o)
 .rodata.str1.1
                0x000604da       0x92 libbb/lib.a(obscure.o)
 .rodata.str1.1
                0x0006056c        0xe libbb/lib.a(run_shell.o)
                                 0x15 (size before relaxing)
 .rodata.str1.1
                0x0006057a       0x32 libbb/lib.a(setup_environment.o)
                                 0x4e (size before relaxing)
 .rodata.str1.1
                0x000605ac        0x6 libbb/lib.a(trim.o)
 *fill*         0x000605b2        0x2 00
 .rodata.signals
                0x000605b4       0xe0 libbb/lib.a(u_signal_names.o)
 .rodata.str1.1
                0x00060694        0x4 libbb/lib.a(u_signal_names.o)
 .rodata.str1.1
                0x00060698       0x49 libbb/lib.a(update_passwd.o)
                                 0x69 (size before relaxing)
 .rodata.str1.1
                0x000606e1       0x17 libbb/lib.a(warn_ignoring_args.o)
 .rodata.str1.1
                0x000606f8       0x37 libbb/lib.a(xconnect.o)
                                 0x45 (size before relaxing)
 .rodata.str1.1
                0x00000000        0x3 libbb/lib.a(xgethostbyname.o)

.rodata1
 *(.rodata1)

.ARM.extab
 *(.ARM.extab* .gnu.linkonce.armextab.*)
                0x0006072f                PROVIDE (__exidx_start, .)

.ARM.exidx      0x00060730       0x20
 *(.ARM.exidx* .gnu.linkonce.armexidx.*)
 .ARM.exidx     0x00060730        0x8 /projects/hnd/tools/linux/hndtools-arm-linux-2.6.36-uclibc-4.5.3/lib/gcc/arm-brcm-linux-uclibcgnueabi/4.5.3/libgcc.a(bpabi.o)
                                 0x10 (size before relaxing)
 .ARM.exidx     0x00060738        0x8 /projects/hnd/tools/linux/hndtools-arm-linux-2.6.36-uclibc-4.5.3/lib/gcc/arm-brcm-linux-uclibcgnueabi/4.5.3/libgcc.a(_divdi3.o)
 .ARM.exidx     0x00060740       0x10 /projects/hnd/tools/linux/hndtools-arm-linux-2.6.36-uclibc-4.5.3/lib/gcc/arm-brcm-linux-uclibcgnueabi/4.5.3/libgcc.a(_udivdi3.o)
                                  0x8 (size before relaxing)
                0x00060750                PROVIDE (__exidx_end, .)

.eh_frame_hdr   0x00060750        0x0
 *(.eh_frame_hdr)
 .eh_frame_hdr  0x00000000        0x0 /projects/hnd/tools/linux/hndtools-arm-linux-2.6.36-uclibc-4.5.3/arm-brcm-linux-uclibcgnueabi/sysroot/usr/lib/crtn.o

.eh_frame       0x00060750        0x4
 *(.eh_frame)
 .eh_frame      0x00060750        0x0 /projects/hnd/tools/linux/hndtools-arm-linux-2.6.36-uclibc-4.5.3/lib/gcc/arm-brcm-linux-uclibcgnueabi/4.5.3/crtbegin.o
 .eh_frame      0x00060750        0x4 /projects/hnd/tools/linux/hndtools-arm-linux-2.6.36-uclibc-4.5.3/lib/gcc/arm-brcm-linux-uclibcgnueabi/4.5.3/crtend.o

.gcc_except_table
 *(.gcc_except_table .gcc_except_table.*)
                0x00060754                . = (ALIGN (0x8000) - ((0x8000 - .) & 0x7fff))
                0x00068754                . = DATA_SEGMENT_ALIGN (0x8000, 0x1000)

.eh_frame
 *(.eh_frame)

.gcc_except_table
 *(.gcc_except_table .gcc_except_table.*)

.tdata
 *(.tdata .tdata.* .gnu.linkonce.td.*)

.tbss
 *(.tbss .tbss.* .gnu.linkonce.tb.*)
 *(.tcommon)

.preinit_array  0x00068754        0x0
                0x00068754                PROVIDE (__preinit_array_start, .)
 *(.preinit_array)
                0x00068754                PROVIDE (__preinit_array_end, .)

.init_array     0x00068754        0x4
                0x00068754                PROVIDE (__init_array_start, .)
 *(SORT(.init_array.*))
 *(.init_array)
 .init_array    0x00068754        0x4 /projects/hnd/tools/linux/hndtools-arm-linux-2.6.36-uclibc-4.5.3/lib/gcc/arm-brcm-linux-uclibcgnueabi/4.5.3/crtbegin.o
                0x00068758                PROVIDE (__init_array_end, .)

.fini_array     0x00068758        0x4
                0x00068758                PROVIDE (__fini_array_start, .)
 *(SORT(.fini_array.*))
 *(.fini_array)
 .fini_array    0x00068758        0x4 /projects/hnd/tools/linux/hndtools-arm-linux-2.6.36-uclibc-4.5.3/lib/gcc/arm-brcm-linux-uclibcgnueabi/4.5.3/crtbegin.o
                0x0006875c                PROVIDE (__fini_array_end, .)

.ctors
 *crtbegin.o(.ctors)
 *crtbegin?.o(.ctors)
 *(EXCLUDE_FILE(*crtend?.o *crtend.o) .ctors)
 *(SORT(.ctors.*))
 *(.ctors)

.dtors
 *crtbegin.o(.dtors)
 *crtbegin?.o(.dtors)
 *(EXCLUDE_FILE(*crtend?.o *crtend.o) .dtors)
 *(SORT(.dtors.*))
 *(.dtors)

.jcr            0x0006875c        0x4
 *(.jcr)
 .jcr           0x0006875c        0x0 /projects/hnd/tools/linux/hndtools-arm-linux-2.6.36-uclibc-4.5.3/lib/gcc/arm-brcm-linux-uclibcgnueabi/4.5.3/crtbegin.o
 .jcr           0x0006875c        0x4 /projects/hnd/tools/linux/hndtools-arm-linux-2.6.36-uclibc-4.5.3/lib/gcc/arm-brcm-linux-uclibcgnueabi/4.5.3/crtend.o

.data.rel.ro
 *(.data.rel.ro.local* .gnu.linkonce.d.rel.ro.local.*)
 *(.data.rel.ro* .gnu.linkonce.d.rel.ro.*)

.dynamic        0x00068760      0x100
 *(.dynamic)
 .dynamic       0x00068760      0x100 /projects/hnd/tools/linux/hndtools-arm-linux-2.6.36-uclibc-4.5.3/arm-brcm-linux-uclibcgnueabi/sysroot/usr/lib/libcrypt.so
                0x00068760                _DYNAMIC
                0x00068860                . = DATA_SEGMENT_RELRO_END (., 0x0)

.got            0x00068860      0x4dc
 *(.got.plt)
 .got.plt       0x00068860      0x4d8 /projects/hnd/tools/linux/hndtools-arm-linux-2.6.36-uclibc-4.5.3/arm-brcm-linux-uclibcgnueabi/sysroot/usr/lib/libcrypt.so
                0x00068860                _GLOBAL_OFFSET_TABLE_
 *(.igot.plt)
 *(.got)
 .got           0x00068d38        0x4 /projects/hnd/tools/linux/hndtools-arm-linux-2.6.36-uclibc-4.5.3/arm-brcm-linux-uclibcgnueabi/sysroot/usr/lib/libcrypt.so
 *(.igot)

.data           0x00068d3c      0x114
                0x00068d3c                PROVIDE (__data_start, .)
 *(.data .data.* .gnu.linkonce.d.*)
 .data          0x00068d3c        0x4 /projects/hnd/tools/linux/hndtools-arm-linux-2.6.36-uclibc-4.5.3/lib/gcc/arm-brcm-linux-uclibcgnueabi/4.5.3/crtbegin.o
                0x00068d3c                __dso_handle
 .data          0x00068d40        0x4 applets/built-in.o
                0x00068d40                bb_errno
 .data.delim    0x00068d44        0x1 coreutils/lib.a(cut.o)
 *fill*         0x00068d45        0x3 00
 .data.count_hardlinks
                0x00068d48        0x4 coreutils/lib.a(du.o)
 .data.max_print_depth
                0x00068d4c        0x4 coreutils/lib.a(du.o)
 .data.disp_hr  0x00068d50        0x4 coreutils/lib.a(du.o)
 .data.terminal_width
                0x00068d54        0x4 coreutils/lib.a(ls.o)
 .data.tabstops
                0x00068d58        0x4 coreutils/lib.a(ls.o)
 .data.last_file_modified
                0x00068d5c        0x4 editors/lib.a(vi.o)
 .data.recurse_flags
                0x00068d60        0x4 findutils/lib.a(find.o)
 .data.need_print
                0x00068d64        0x1 findutils/lib.a(find.o)
 *fill*         0x00068d65        0x3 00
 .data.xfunc_error_retval
                0x00068d68        0x4 libbb/lib.a(default_error_retval.o)
                0x00068d68                xfunc_error_retval
 .data          0x00068d6c        0x4 libbb/lib.a(messages.o)
                0x00068d6c                ptr_to_globals
 .data.msg_eol  0x00068d70        0x4 libbb/lib.a(verror_msg.o)
                0x00068d70                msg_eol
 .data.logmode  0x00068d74        0x4 libbb/lib.a(verror_msg.o)
                0x00068d74                logmode
 .data.CDir     0x00068d78        0x4 miscutils/lib.a(crond.o)
 .data.LogLevel
                0x00068d7c        0x4 miscutils/lib.a(crond.o)
 .data.CDir     0x00068d80        0x4 miscutils/lib.a(crontab.o)
 .data.device   0x00068d84        0x4 networking/lib.a(arp.o)
 .data.ip_func  0x00068d88        0x4 networking/lib.a(ip.o)
 .data.flags    0x00068d8c        0x4 networking/lib.a(netstat.o)
 .data.net_conn_line
                0x00068d90        0x4 networking/lib.a(netstat.o)
 .data.issuefile
                0x00068d94        0x4 networking/lib.a(telnetd.o)
 .data.loginpath
                0x00068d98        0x4 networking/lib.a(telnetd.o)
 .data.varinit  0x00068d9c       0x70 shell/lib.a(ash.o)
 .data.plinno   0x00068e0c        0x4 shell/lib.a(ash.o)
 .data.stackp   0x00068e10        0x4 shell/lib.a(ash.o)
 .data.stacknxt
                0x00068e14        0x4 shell/lib.a(ash.o)
 .data.physdir  0x00068e18        0x4 shell/lib.a(ash.o)
 .data.builtinloc
                0x00068e1c        0x4 shell/lib.a(ash.o)
 .data.stacknleft
                0x00068e20        0x4 shell/lib.a(ash.o)
 .data.parsefile
                0x00068e24        0x4 shell/lib.a(ash.o)
 .data.sstrend  0x00068e28        0x4 shell/lib.a(ash.o)
 .data.herefd   0x00068e2c        0x4 shell/lib.a(ash.o)
 .data.ttyfd    0x00068e30        0x4 shell/lib.a(ash.o)
 .data.curdir   0x00068e34        0x4 shell/lib.a(ash.o)
 .data.SMrup    0x00068e38        0x8 sysklogd/lib.a(logread.o)
 .data.SMrdn    0x00068e40        0xc sysklogd/lib.a(logread.o)
 .data.cmdedit_termw
                0x00068e4c        0x4 libbb/lib.a(lineedit.o)

.data1
 *(.data1)
                0x00068e50                _edata = .
                0x00068e50                PROVIDE (edata, .)
                0x00068e50                __bss_start = .
                0x00068e50                __bss_start__ = .

.bss            0x00068e50     0x1bbc
 *(.dynbss)
 .dynbss        0x00068e50       0x24 /projects/hnd/tools/linux/hndtools-arm-linux-2.6.36-uclibc-4.5.3/arm-brcm-linux-uclibcgnueabi/sysroot/usr/lib/libcrypt.so
                0x00068e50                stdout
                0x00068e54                stderr
                0x00068e58                optind
                0x00068e60                environ
                0x00068e60                __environ
                0x00068e64                stdin
                0x00068e68                opterr
                0x00068e70                optarg
 *(.bss .bss.* .gnu.linkonce.b.*)
 .bss           0x00068e74       0x1c /projects/hnd/tools/linux/hndtools-arm-linux-2.6.36-uclibc-4.5.3/lib/gcc/arm-brcm-linux-uclibcgnueabi/4.5.3/crtbegin.o
 .bss.suid_cfg_readable
                0x00068e90        0x1 applets/built-in.o
 *fill*         0x00068e91        0x3 00
 .bss.ruid      0x00068e94        0x4 applets/built-in.o
 .bss.suid_config
                0x00068e98        0x4 applets/built-in.o
 .bss.warned.6903
                0x00068e9c        0x4 archival/lib.a(tar.o)
 .bss.linkname  0x00068ea0        0x4 archival/libunarchive/lib.a(get_header_tar.o)
 .bss.longname  0x00068ea4        0x4 archival/libunarchive/lib.a(get_header_tar.o)
 .bss.end.6774  0x00068ea8        0x4 archival/libunarchive/lib.a(get_header_tar.o)
 .bss.cut_lists
                0x00068eac        0x4 coreutils/lib.a(cut.o)
 .bss.nlists    0x00068eb0        0x4 coreutils/lib.a(cut.o)
 .bss.print_files
                0x00068eb4        0x4 coreutils/lib.a(du.o)
 .bss.slink_depth
                0x00068eb8        0x4 coreutils/lib.a(du.o)
 *fill*         0x00068ebc        0x4 00
 .bss.dir_dev   0x00068ec0        0x8 coreutils/lib.a(du.o)
 .bss.du_depth  0x00068ec8        0x4 coreutils/lib.a(du.o)
 .bss.one_file_system
                0x00068ecc        0x4 coreutils/lib.a(du.o)
 .bss.status    0x00068ed0        0x4 coreutils/lib.a(du.o)
 .bss.all_fmt   0x00068ed4        0x4 coreutils/lib.a(ls.o)
 .bss.current_time_t
                0x00068ed8        0x4 coreutils/lib.a(ls.o)
 .bss.show_color
                0x00068edc        0x4 coreutils/lib.a(ls.o)
 .bss.status    0x00068ee0        0x4 coreutils/lib.a(ls.o)
 *fill*         0x00068ee4        0x4 00
 .bss.leaving   0x00068ee8      0x110 coreutils/lib.a(test.o)
 .bss.t_wp_op   0x00068ff8        0x4 coreutils/lib.a(test.o)
 .bss.group_array
                0x00068ffc        0x4 coreutils/lib.a(test.o)
 .bss.ngroups   0x00069000        0x4 coreutils/lib.a(test.o)
 .bss.t_wp      0x00069004        0x4 coreutils/lib.a(test.o)
 .bss.current_filename
                0x00069008        0x4 editors/lib.a(vi.o)
 .bss.offset    0x0006900c        0x4 editors/lib.a(vi.o)
 .bss.save_argc
                0x00069010        0x4 editors/lib.a(vi.o)
 .bss.tabstop   0x00069014        0x4 editors/lib.a(vi.o)
 .bss.screen    0x00069018        0x4 editors/lib.a(vi.o)
 .bss.screenbegin
                0x0006901c        0x4 editors/lib.a(vi.o)
 .bss.rows      0x00069020        0x4 editors/lib.a(vi.o)
 .bss.last_modifying_cmd
                0x00069024        0x4 editors/lib.a(vi.o)
 .bss.editing   0x00069028        0x4 editors/lib.a(vi.o)
 .bss.erase_char
                0x0006902c        0x1 editors/lib.a(vi.o)
 *fill*         0x0006902d        0x3 00
 .bss.fn_start  0x00069030        0x4 editors/lib.a(vi.o)
 .bss.obufp.7400
                0x00069034        0x4 editors/lib.a(vi.o)
 .bss.ioq       0x00069038        0x4 editors/lib.a(vi.o)
 .bss.screensize
                0x0006903c        0x4 editors/lib.a(vi.o)
 .bss.cmd_mode  0x00069040        0x4 editors/lib.a(vi.o)
 .bss.vi_setops
                0x00069044        0x4 editors/lib.a(vi.o)
 .bss.have_status_msg
                0x00069048        0x4 editors/lib.a(vi.o)
 .bss.readed_for_parse
                0x0006904c        0x4 editors/lib.a(vi.o)
 .bss.last_forward_char
                0x00069050        0x1 editors/lib.a(vi.o)
 *fill*         0x00069051        0x3 00
 .bss.tot.7497  0x00069054        0x4 editors/lib.a(vi.o)
 .bss.old_offset.7522
                0x00069058        0x4 editors/lib.a(vi.o)
 .bss.last_row  0x0006905c        0x4 editors/lib.a(vi.o)
 .bss.cur_line.6928
                0x00069060        0x4 editors/lib.a(vi.o)
 .bss.ccol      0x00069064        0x4 editors/lib.a(vi.o)
 .bss.readonly_mode
                0x00069068        0x4 editors/lib.a(vi.o)
 .bss.ioq_start
                0x0006906c        0x4 editors/lib.a(vi.o)
 .bss.status_buffer
                0x00069070        0x4 editors/lib.a(vi.o)
 .bss.adding2q  0x00069074        0x4 editors/lib.a(vi.o)
 .bss.file_modified
                0x00069078        0x4 editors/lib.a(vi.o)
 .bss.last_status_cksum
                0x0006907c        0x4 editors/lib.a(vi.o)
 .bss.c.7395    0x00069080        0x1 editors/lib.a(vi.o)
 *fill*         0x00069081        0x3 00
 .bss.columns   0x00069084        0x4 editors/lib.a(vi.o)
 .bss.my_pid    0x00069088        0x4 editors/lib.a(vi.o)
 .bss.modifying_cmds
                0x0006908c        0x4 editors/lib.a(vi.o)
 .bss.cmdcnt    0x00069090        0x4 editors/lib.a(vi.o)
 .bss.last_input_char
                0x00069094        0x1 editors/lib.a(vi.o)
 *fill*         0x00069095        0x3 00
 .bss.crow      0x00069098        0x4 editors/lib.a(vi.o)
 .bss.last_search_pattern
                0x0006909c        0x4 editors/lib.a(vi.o)
 .bss.actions   0x000690a0        0x4 findutils/lib.a(find.o)
 .bss.xdev_count
                0x000690a4        0x4 findutils/lib.a(find.o)
 .bss.xdev_dev  0x000690a8        0x4 findutils/lib.a(find.o)
 .bss.last_line_printed
                0x000690ac        0x4 findutils/lib.a(grep.o)
 .bss.reflags   0x000690b0        0x4 findutils/lib.a(grep.o)
 .bss.lines_before
                0x000690b4        0x4 findutils/lib.a(grep.o)
 .bss.did_print_line
                0x000690b8        0x1 findutils/lib.a(grep.o)
 *fill*         0x000690b9        0x3 00
 .bss.pattern_head
                0x000690bc        0x4 findutils/lib.a(grep.o)
 .bss.max_matches
                0x000690c0        0x4 findutils/lib.a(grep.o)
 .bss.cur_file  0x000690c4        0x4 findutils/lib.a(grep.o)
 .bss.lines_after
                0x000690c8        0x4 findutils/lib.a(grep.o)
 .bss.before_buf
                0x000690cc        0x4 findutils/lib.a(grep.o)
 .bss.print_filename
                0x000690d0        0x1 findutils/lib.a(grep.o)
 .bss.invert_search
                0x000690d1        0x1 findutils/lib.a(grep.o)
 .bss.open_errors
                0x000690d2        0x1 findutils/lib.a(grep.o)
 *fill*         0x000690d3        0x1 00
 .bss.eof_stdin_detected
                0x000690d4        0x4 findutils/lib.a(xargs.o)
 .bss.str.6643  0x000690d8       0x15 libbb/lib.a(human_readable.o)
 *fill*         0x000690ed        0x3 00
 .bss.ino_dev_hashtable
                0x000690f0        0x4 libbb/lib.a(inode_hash.o)
 .bss.buf.6640  0x000690f4        0xc libbb/lib.a(mode_string.o)
 .bss.username  0x00069100        0x8 libbb/lib.a(procps.o)
 .bss.groupname
                0x00069108        0x8 libbb/lib.a(procps.o)
 .bss.local_buf
                0x00069110        0xc libbb/lib.a(xfuncs.o)
 .bss.LogFile   0x0006911c        0x4 miscutils/lib.a(crond.o)
 .bss.FileBase  0x00069120        0x4 miscutils/lib.a(crond.o)
 .bss.DebugOpt  0x00069124        0x4 miscutils/lib.a(crond.o)
 .bss.nksyms    0x00069128        0x4 modutils/lib.a(insmod.o)
 .bss.printed_info.7761
                0x0006912c        0x4 modutils/lib.a(insmod.o)
 .bss.ext_modules
                0x00069130        0x4 modutils/lib.a(insmod.o)
 .bss.m_fullName
                0x00069134        0x4 modutils/lib.a(insmod.o)
 .bss.m_filename
                0x00069138        0x4 modutils/lib.a(insmod.o)
 .bss.ksyms     0x0006913c        0x4 modutils/lib.a(insmod.o)
 .bss.n_ext_modules
                0x00069140        0x4 modutils/lib.a(insmod.o)
 .bss.n_ext_modules_used
                0x00069144        0x4 modutils/lib.a(insmod.o)
 .bss.sockfd    0x00069148        0x4 networking/lib.a(arp.o)
 .bss.ap        0x0006914c        0x4 networking/lib.a(arp.o)
 .bss.hw        0x00069150        0x4 networking/lib.a(arp.o)
 .bss.hw_set    0x00069154        0x4 networking/lib.a(arp.o)
 .bss.int_list  0x00069158        0x4 networking/lib.a(interface.o)
 .bss.buff.6750
                0x0006915c        0x4 networking/lib.a(interface.o)
 .bss.buff.6769
                0x00069160        0x4 networking/lib.a(interface.o)
 .bss.proc_read.6892
                0x00069164        0x4 networking/lib.a(interface.o)
 .bss.buff.6985
                0x00069168        0x4 networking/lib.a(interface.o)
 .bss.int_last  0x0006916c        0x4 networking/lib.a(interface.o)
 .bss.buff.6760
                0x00069170        0x4 networking/lib.a(interface.o)
 .bss.has_inode.6790
                0x00069174        0x4 networking/lib.a(netstat.o)
 .bss.maxfd     0x00069178        0x4 networking/lib.a(telnetd.o)
 .bss.sessions  0x0006917c        0x4 networking/lib.a(telnetd.o)
 .bss.preferred_family
                0x00069180        0x4 networking/libiproute/lib.a(ip_parse_common_args.o)
                0x00069180                preferred_family
 .bss.hz_internal.7574
                0x00069184        0x4 networking/libiproute/lib.a(iproute.o)
 .bss.nbuf.7427
                0x00069188       0x10 networking/libiproute/lib.a(ll_map.o)
 .bss.idxmap    0x00069198       0x40 networking/libiproute/lib.a(ll_map.o)
 .bss.rtnl_rtscope_tab
                0x000691d8        0x4 networking/libiproute/lib.a(rt_names.o)
 .bss.res.6798  0x000691dc        0x4 networking/libiproute/lib.a(rt_names.o)
 .bss.rtnl_rttable_tab
                0x000691e0        0x4 networking/libiproute/lib.a(rt_names.o)
 .bss.res.6722  0x000691e4        0x4 networking/libiproute/lib.a(rt_names.o)
 .bss.cache.6797
                0x000691e8        0x4 networking/libiproute/lib.a(rt_names.o)
 .bss.res.6755  0x000691ec        0x4 networking/libiproute/lib.a(rt_names.o)
 .bss.res.6741  0x000691f0        0x4 networking/libiproute/lib.a(rt_names.o)
 .bss.cache.6778
                0x000691f4        0x4 networking/libiproute/lib.a(rt_names.o)
 .bss.cache.6721
                0x000691f8        0x4 networking/libiproute/lib.a(rt_names.o)
 .bss.rtnl_rtrealm_tab
                0x000691fc        0x4 networking/libiproute/lib.a(rt_names.o)
 .bss.cache.6740
                0x00069200        0x4 networking/libiproute/lib.a(rt_names.o)
 .bss.rtnl_rtprot_tab
                0x00069204        0x4 networking/libiproute/lib.a(rt_names.o)
 .bss.res.6779  0x00069208        0x4 networking/libiproute/lib.a(rt_names.o)
 .bss.rtnl_rtdsfield_tab
                0x0006920c        0x4 networking/libiproute/lib.a(rt_names.o)
 .bss.cache.6754
                0x00069210        0x4 networking/libiproute/lib.a(rt_names.o)
 .bss.preverrout_fd
                0x00069214        0x4 shell/lib.a(ash.o)
 .bss.parsenleft
                0x00069218        0x4 shell/lib.a(ash.o)
 .bss.markp     0x0006921c        0x4 shell/lib.a(ash.o)
 .bss.localvars
                0x00069220        0x4 shell/lib.a(ash.o)
 .bss.shlvl     0x00069224        0x4 shell/lib.a(ash.o)
 .bss.back_exitstatus
                0x00069228        0x4 shell/lib.a(ash.o)
 .bss.buf.8543  0x0006922c       0x10 shell/lib.a(ash.o)
 .bss.line_input_state
                0x0006923c        0x4 shell/lib.a(ash.o)
 .bss.intpending
                0x00069240        0x4 shell/lib.a(ash.o)
 .bss.optionarg
                0x00069244        0x4 shell/lib.a(ash.o)
 .bss.stackbase
                0x00069248      0x1fc shell/lib.a(ash.o)
 .bss.gotsig    0x00069444       0x40 shell/lib.a(ash.o)
 .bss.jobless   0x00069484        0x4 shell/lib.a(ash.o)
 .bss.heredoclist
                0x00069488        0x4 shell/lib.a(ash.o)
 .bss.lasttoken
                0x0006948c        0x4 shell/lib.a(ash.o)
 .bss.funcstring
                0x00069490        0x4 shell/lib.a(ash.o)
 .bss.jobtab    0x00069494        0x4 shell/lib.a(ash.o)
 .bss.argptr    0x00069498        0x4 shell/lib.a(ash.o)
 .bss.funcstringsize
                0x0006949c        0x4 shell/lib.a(ash.o)
 .bss.isloginsh
                0x000694a0        0x4 shell/lib.a(ash.o)
 .bss.atab      0x000694a4       0x9c shell/lib.a(ash.o)
 .bss.quoteflag
                0x00069540        0x4 shell/lib.a(ash.o)
 .bss.cmdtable  0x00069544       0x7c shell/lib.a(ash.o)
 .bss.skipcount
                0x000695c0        0x4 shell/lib.a(ash.o)
 .bss.jobctl    0x000695c4        0x4 shell/lib.a(ash.o)
 .bss.nullredirs
                0x000695c8        0x4 shell/lib.a(ash.o)
 .bss.vartab    0x000695cc       0x9c shell/lib.a(ash.o)
 .bss.redirlist
                0x00069668        0x4 shell/lib.a(ash.o)
 .bss.sigmode   0x0006966c       0x40 shell/lib.a(ash.o)
 .bss.doprompt  0x000696ac        0x4 shell/lib.a(ash.o)
 .bss.evalskip  0x000696b0        0x4 shell/lib.a(ash.o)
 .bss.parsebackquote
                0x000696b4        0x4 shell/lib.a(ash.o)
 .bss.exparg    0x000696b8        0x8 shell/lib.a(ash.o)
 .bss.expdest   0x000696c0        0x4 shell/lib.a(ash.o)
 .bss.nullstr   0x000696c4        0x1 shell/lib.a(ash.o)
 *fill*         0x000696c5        0x3 00
 .bss.trap      0x000696c8      0x104 shell/lib.a(ash.o)
 .bss.redirnode
                0x000697cc        0x4 shell/lib.a(ash.o)
 .bss.cmdenviron
                0x000697d0        0x4 shell/lib.a(ash.o)
 .bss.funcblocksize
                0x000697d4        0x4 shell/lib.a(ash.o)
 .bss.funcnest  0x000697d8        0x4 shell/lib.a(ash.o)
 .bss.expdir    0x000697dc        0x4 shell/lib.a(ash.o)
 .bss.cmdedit_prompt
                0x000697e0        0x4 shell/lib.a(ash.o)
 .bss.argbackq  0x000697e4        0x4 shell/lib.a(ash.o)
 .bss.backgndpid
                0x000697e8        0x4 shell/lib.a(ash.o)
 .bss.rootpid   0x000697ec        0x4 shell/lib.a(ash.o)
 .bss.exitstatus
                0x000697f0        0x4 shell/lib.a(ash.o)
 .bss.initialpgrp
                0x000697f4        0x4 shell/lib.a(ash.o)
 .bss.prev_chk_var_recursive
                0x000697f8        0x4 shell/lib.a(ash.o)
 .bss.parselleft
                0x000697fc        0x4 shell/lib.a(ash.o)
 .bss.ifsfirst  0x00069800       0x10 shell/lib.a(ash.o)
 .bss.njobs     0x00069810        0x4 shell/lib.a(ash.o)
 .bss.tokpushback
                0x00069814        0x4 shell/lib.a(ash.o)
 .bss.optlist   0x00069818        0xe shell/lib.a(ash.o)
 *fill*         0x00069826        0x2 00
 .bss.heredoc   0x00069828        0x4 shell/lib.a(ash.o)
 .bss.is_interactive.8858
                0x0006982c        0x4 shell/lib.a(ash.o)
 .bss.exsig     0x00069830        0x4 shell/lib.a(ash.o)
 .bss.cmdnextc  0x00069834        0x4 shell/lib.a(ash.o)
 .bss.suppressint
                0x00069838        0x4 shell/lib.a(ash.o)
 .bss.pendingsig
                0x0006983c        0x4 shell/lib.a(ash.o)
 .bss.optptr    0x00069840        0x4 shell/lib.a(ash.o)
 .bss.job_warning
                0x00069844        0x4 shell/lib.a(ash.o)
 .bss.pathopt   0x00069848        0x4 shell/lib.a(ash.o)
 .bss.rseed     0x0006984c        0x4 shell/lib.a(ash.o)
 .bss.startlinno
                0x00069850        0x4 shell/lib.a(ash.o)
 .bss.wordtext  0x00069854        0x4 shell/lib.a(ash.o)
 .bss.backquotelist
                0x00069858        0x4 shell/lib.a(ash.o)
 .bss.minusc    0x0006985c        0x4 shell/lib.a(ash.o)
 .bss.checkkwd  0x00069860        0x4 shell/lib.a(ash.o)
 .bss.arg0      0x00069864        0x4 shell/lib.a(ash.o)
 .bss.curjob    0x00069868        0x4 shell/lib.a(ash.o)
 .bss.loopnest  0x0006986c        0x4 shell/lib.a(ash.o)
 .bss.ifslastp  0x00069870        0x4 shell/lib.a(ash.o)
 .bss.commandname
                0x00069874        0x4 shell/lib.a(ash.o)
 .bss.did_banner.8859
                0x00069878        0x4 shell/lib.a(ash.o)
 .bss.needprompt
                0x0006987c        0x4 shell/lib.a(ash.o)
 .bss.funcblock
                0x00069880        0x4 shell/lib.a(ash.o)
 .bss.lastcmdentry
                0x00069884        0x4 shell/lib.a(ash.o)
 .bss.shellparam
                0x00069888       0x14 shell/lib.a(ash.o)
 .bss.basepf    0x0006989c       0x34 shell/lib.a(ash.o)
 .bss.parsenextc
                0x000698d0        0x4 shell/lib.a(ash.o)
 .bss.exception_handler
                0x000698d4        0x4 shell/lib.a(ash.o)
 .bss.exception
                0x000698d8        0x4 shell/lib.a(ash.o)
 .bss.shbuf     0x000698dc        0x4 sysklogd/lib.a(logread.o)
 .bss.fslist    0x000698e0        0x4 util-linux/lib.a(mount.o)
                0x000698e0                fslist
 .bss.buf.7529  0x000698e4       0x30 util-linux/lib.a(mount.o)
 .bss.p.7580    0x00069914       0x10 util-linux/lib.a(mount.o)
 .bss.kernel_version
                0x00069924        0x4 util-linux/lib.a(mount.o)
 .bss.nfs_mount_version
                0x00069928        0x4 util-linux/lib.a(mount.o)
 .bss.passwd.6644
                0x0006992c        0x4 libbb/lib.a(bb_askpass.o)
 .bss.cache.6665
                0x00069930        0x4 libbb/lib.a(inet_common.o)
 .bss.command_ps
                0x00069934        0x4 libbb/lib.a(lineedit.o)
 .bss.new_settings
                0x00069938       0x3c libbb/lib.a(lineedit.o)
 .bss.matches   0x00069974        0x4 libbb/lib.a(lineedit.o)
 .bss.state     0x00069978        0x4 libbb/lib.a(lineedit.o)
 .bss.cmdedit_x
                0x0006997c        0x4 libbb/lib.a(lineedit.o)
 .bss.cmdedit_y
                0x00069980        0x4 libbb/lib.a(lineedit.o)
 .bss.cmdedit_prompt
                0x00069984        0x4 libbb/lib.a(lineedit.o)
 .bss.cmdedit_prmt_len
                0x00069988        0x4 libbb/lib.a(lineedit.o)
 .bss.cursor    0x0006998c        0x4 libbb/lib.a(lineedit.o)
 .bss.command_len
                0x00069990        0x4 libbb/lib.a(lineedit.o)
 .bss.initial_settings
                0x00069994       0x3c libbb/lib.a(lineedit.o)
 .bss.num_matches
                0x000699d0        0x4 libbb/lib.a(lineedit.o)
 .bss.previous_SIGWINCH_handler
                0x000699d4        0x4 libbb/lib.a(lineedit.o)
 .bss.cipher.6647
                0x000699d8        0x4 libbb/lib.a(pw_encrypt.o)
 *(COMMON)
 COMMON         0x000699dc        0x8 applets/built-in.o
                0x000699dc                applet_name
                0x000699e0                current_applet
 COMMON         0x000699e4        0x4 libbb/lib.a(error_msg_and_die.o)
                0x000699e4                die_sleep
 COMMON         0x000699e8        0xc libbb/lib.a(getopt32.o)
                0x000699e8                option_mask32
                0x000699ec                opt_complementary
                0x000699f0                applet_long_options
 COMMON         0x000699f4     0x1008 libbb/lib.a(messages.o)
                0x000699f4                bb_common_bufsiz1
                0x0006a9f8                const_int_0
 COMMON         0x0006a9fc        0x4 networking/lib.a(interface.o)
                0x0006a9fc                interface_opt_a
 COMMON         0x0006aa00        0x5 networking/libiproute/lib.a(ip_parse_common_args.o)
                0x0006aa00                oneline
                0x0006aa04                _SL_
 *fill*         0x0006aa05        0x3 00
 COMMON         0x0006aa08        0x4 libbb/lib.a(pidfile.o)
                0x0006aa08                wrote_pidfile
                0x0006aa0c                . = ALIGN ((. != 0x0)?0x4:0x1)
                0x0006aa0c                _bss_end__ = .
                0x0006aa0c                __bss_end__ = .
                0x0006aa0c                . = ALIGN (0x4)
                0x0006aa0c                . = ALIGN (0x4)
                0x0006aa0c                __end__ = .
                0x0006aa0c                _end = .
                0x0006aa0c                PROVIDE (end, .)
                0x0006aa0c                . = DATA_SEGMENT_END (.)

.stab
 *(.stab)

.stabstr
 *(.stabstr)

.stab.excl
 *(.stab.excl)

.stab.exclstr
 *(.stab.exclstr)

.stab.index
 *(.stab.index)

.stab.indexstr
 *(.stab.indexstr)

.comment        0x00000000       0x4d
 *(.comment)
 .comment       0x00000000       0x2e /projects/hnd/tools/linux/hndtools-arm-linux-2.6.36-uclibc-4.5.3/arm-brcm-linux-uclibcgnueabi/sysroot/usr/lib/crti.o
                                 0x2f (size before relaxing)
 .comment       0x0000002e       0x1f /projects/hnd/tools/linux/hndtools-arm-linux-2.6.36-uclibc-4.5.3/lib/gcc/arm-brcm-linux-uclibcgnueabi/4.5.3/crtbegin.o
                                 0x20 (size before relaxing)
 .comment       0x00000000       0x20 applets/built-in.o
 .comment       0x00000000       0x20 archival/lib.a(bbunzip.o)
 .comment       0x00000000       0x20 archival/lib.a(gzip.o)
 .comment       0x00000000       0x20 archival/lib.a(tar.o)
 .comment       0x00000000       0x20 archival/libunarchive/lib.a(check_header_gzip.o)
 .comment       0x00000000       0x20 archival/libunarchive/lib.a(data_extract_all.o)
 .comment       0x00000000       0x20 archival/libunarchive/lib.a(data_extract_to_stdout.o)
 .comment       0x00000000       0x20 archival/libunarchive/lib.a(data_skip.o)
 .comment       0x00000000       0x20 archival/libunarchive/lib.a(decompress_bunzip2.o)
 .comment       0x00000000       0x20 archival/libunarchive/lib.a(decompress_uncompress.o)
 .comment       0x00000000       0x20 archival/libunarchive/lib.a(decompress_unzip.o)
 .comment       0x00000000       0x20 archival/libunarchive/lib.a(filter_accept_reject_list.o)
 .comment       0x00000000       0x20 archival/libunarchive/lib.a(find_list_entry.o)
 .comment       0x00000000       0x20 archival/libunarchive/lib.a(get_header_tar.o)
 .comment       0x00000000       0x20 archival/libunarchive/lib.a(get_header_tar_gz.o)
 .comment       0x00000000       0x20 archival/libunarchive/lib.a(header_list.o)
 .comment       0x00000000       0x20 archival/libunarchive/lib.a(header_verbose_list.o)
 .comment       0x00000000       0x20 archival/libunarchive/lib.a(init_handle.o)
 .comment       0x00000000       0x20 archival/libunarchive/lib.a(open_transformer.o)
 .comment       0x00000000       0x20 archival/libunarchive/lib.a(seek_by_jump.o)
 .comment       0x00000000       0x20 archival/libunarchive/lib.a(seek_by_read.o)
 .comment       0x00000000       0x20 archival/libunarchive/lib.a(data_align.o)
 .comment       0x00000000       0x20 archival/libunarchive/lib.a(filter_accept_all.o)
 .comment       0x00000000       0x20 archival/libunarchive/lib.a(header_skip.o)
 .comment       0x00000000       0x20 console-tools/lib.a(clear.o)
 .comment       0x00000000       0x20 console-tools/lib.a(reset.o)
 .comment       0x00000000       0x20 coreutils/lib.a(basename.o)
 .comment       0x00000000       0x20 coreutils/lib.a(cat.o)
 .comment       0x00000000       0x20 coreutils/lib.a(chmod.o)
 .comment       0x00000000       0x20 coreutils/lib.a(cp.o)
 .comment       0x00000000       0x20 coreutils/lib.a(cut.o)
 .comment       0x00000000       0x20 coreutils/lib.a(date.o)
 .comment       0x00000000       0x20 coreutils/lib.a(df.o)
 .comment       0x00000000       0x20 coreutils/lib.a(dirname.o)
 .comment       0x00000000       0x20 coreutils/lib.a(du.o)
 .comment       0x00000000       0x20 coreutils/lib.a(echo.o)
 .comment       0x00000000       0x20 coreutils/lib.a(env.o)
 .comment       0x00000000       0x20 coreutils/lib.a(expr.o)
 .comment       0x00000000       0x20 coreutils/lib.a(false.o)
 .comment       0x00000000       0x20 coreutils/lib.a(head.o)
 .comment       0x00000000       0x20 coreutils/lib.a(hostid.o)
 .comment       0x00000000       0x20 coreutils/lib.a(id.o)
 .comment       0x00000000       0x20 coreutils/lib.a(ln.o)
 .comment       0x00000000       0x20 coreutils/lib.a(ls.o)
 .comment       0x00000000       0x20 coreutils/lib.a(md5_sha1_sum.o)
 .comment       0x00000000       0x20 coreutils/lib.a(mkdir.o)
 .comment       0x00000000       0x20 coreutils/lib.a(mkfifo.o)
 .comment       0x00000000       0x20 coreutils/lib.a(mknod.o)
 .comment       0x00000000       0x20 coreutils/lib.a(mv.o)
 .comment       0x00000000       0x20 coreutils/lib.a(nice.o)
 .comment       0x00000000       0x20 coreutils/lib.a(printenv.o)
 .comment       0x00000000       0x20 coreutils/lib.a(printf.o)
 .comment       0x00000000       0x20 coreutils/lib.a(pwd.o)
 .comment       0x00000000       0x20 coreutils/lib.a(rm.o)
 .comment       0x00000000       0x20 coreutils/lib.a(rmdir.o)
 .comment       0x00000000       0x20 coreutils/lib.a(sleep.o)
 .comment       0x00000000       0x20 coreutils/lib.a(tail.o)
 .comment       0x00000000       0x20 coreutils/lib.a(test.o)
 .comment       0x00000000       0x20 coreutils/lib.a(touch.o)
 .comment       0x00000000       0x20 coreutils/lib.a(tr.o)
 .comment       0x00000000       0x20 coreutils/lib.a(true.o)
 .comment       0x00000000       0x20 coreutils/lib.a(uname.o)
 .comment       0x00000000       0x20 coreutils/lib.a(usleep.o)
 .comment       0x00000000       0x20 coreutils/lib.a(wc.o)
 .comment       0x00000000       0x20 coreutils/lib.a(yes.o)
 .comment       0x00000000       0x20 coreutils/libcoreutils/lib.a(cp_mv_stat.o)
 .comment       0x00000000       0x20 coreutils/libcoreutils/lib.a(getopt_mk_fifo_nod.o)
 .comment       0x00000000       0x20 editors/lib.a(awk.o)
 .comment       0x00000000       0x20 editors/lib.a(sed.o)
 .comment       0x00000000       0x20 editors/lib.a(vi.o)
 .comment       0x00000000       0x20 findutils/lib.a(find.o)
 .comment       0x00000000       0x20 findutils/lib.a(grep.o)
 .comment       0x00000000       0x20 findutils/lib.a(xargs.o)
 .comment       0x00000000       0x20 init/lib.a(halt.o)
 .comment       0x00000000       0x20 libbb/lib.a(ask_confirmation.o)
 .comment       0x00000000       0x20 libbb/lib.a(bb_basename.o)
 .comment       0x00000000       0x20 libbb/lib.a(bb_pwd.o)
 .comment       0x00000000       0x20 libbb/lib.a(bb_strtonum.o)
 .comment       0x00000000       0x20 libbb/lib.a(compare_string_array.o)
 .comment       0x00000000       0x20 libbb/lib.a(concat_path_file.o)
 .comment       0x00000000       0x20 libbb/lib.a(concat_subpath_file.o)
 .comment       0x00000000       0x20 libbb/lib.a(copy_file.o)
 .comment       0x00000000       0x20 libbb/lib.a(copyfd.o)
 .comment       0x00000000       0x20 libbb/lib.a(crc32.o)
 .comment       0x00000000       0x20 libbb/lib.a(default_error_retval.o)
 .comment       0x00000000       0x20 libbb/lib.a(error_msg.o)
 .comment       0x00000000       0x20 libbb/lib.a(error_msg_and_die.o)
 .comment       0x00000000       0x20 libbb/lib.a(fclose_nonstdin.o)
 .comment       0x00000000       0x20 libbb/lib.a(fflush_stdout_and_exit.o)
 .comment       0x00000000       0x20 libbb/lib.a(find_mount_point.o)
 .comment       0x00000000       0x20 libbb/lib.a(find_root_device.o)
 .comment       0x00000000       0x20 libbb/lib.a(full_write.o)
 .comment       0x00000000       0x20 libbb/lib.a(get_last_path_component.o)
 .comment       0x00000000       0x20 libbb/lib.a(get_line_from_file.o)
 .comment       0x00000000       0x20 libbb/lib.a(getopt32.o)
 .comment       0x00000000       0x20 libbb/lib.a(human_readable.o)
 .comment       0x00000000       0x20 libbb/lib.a(inode_hash.o)
 .comment       0x00000000       0x20 libbb/lib.a(isdirectory.o)
 .comment       0x00000000       0x20 libbb/lib.a(last_char_is.o)
 .comment       0x00000000       0x20 libbb/lib.a(llist.o)
 .comment       0x00000000       0x20 libbb/lib.a(make_directory.o)
 .comment       0x00000000       0x20 libbb/lib.a(makedev.o)
 .comment       0x00000000       0x20 libbb/lib.a(md5.o)
 .comment       0x00000000       0x20 libbb/lib.a(messages.o)
 .comment       0x00000000       0x20 libbb/lib.a(mode_string.o)
 .comment       0x00000000       0x20 libbb/lib.a(mtab_file.o)
 .comment       0x00000000       0x20 libbb/lib.a(parse_mode.o)
 .comment       0x00000000       0x20 libbb/lib.a(perror_msg.o)
 .comment       0x00000000       0x20 libbb/lib.a(perror_msg_and_die.o)
 .comment       0x00000000       0x20 libbb/lib.a(perror_nomsg_and_die.o)
 .comment       0x00000000       0x20 libbb/lib.a(process_escape_sequence.o)
 .comment       0x00000000       0x20 libbb/lib.a(procps.o)
 .comment       0x00000000       0x20 libbb/lib.a(read.o)
 .comment       0x00000000       0x20 libbb/lib.a(recursive_action.o)
 .comment       0x00000000       0x20 libbb/lib.a(remove_file.o)
 .comment       0x00000000       0x20 libbb/lib.a(safe_strncpy.o)
 .comment       0x00000000       0x20 libbb/lib.a(safe_write.o)
 .comment       0x00000000       0x20 libbb/lib.a(skip_whitespace.o)
 .comment       0x00000000       0x20 libbb/lib.a(verror_msg.o)
 .comment       0x00000000       0x20 libbb/lib.a(vfork_daemon_rexec.o)
 .comment       0x00000000       0x20 libbb/lib.a(wfopen.o)
 .comment       0x00000000       0x20 libbb/lib.a(wfopen_input.o)
 .comment       0x00000000       0x20 libbb/lib.a(xatonum.o)
 .comment       0x00000000       0x20 libbb/lib.a(xfuncs.o)
 .comment       0x00000000       0x20 libbb/lib.a(xgetcwd.o)
 .comment       0x00000000       0x20 libbb/lib.a(xreadlink.o)
 .comment       0x00000000       0x20 libbb/lib.a(xregcomp.o)
 .comment       0x00000000       0x20 loginutils/lib.a(addgroup.o)
 .comment       0x00000000       0x20 loginutils/lib.a(adduser.o)
 .comment       0x00000000       0x20 loginutils/lib.a(deluser.o)
 .comment       0x00000000       0x20 loginutils/lib.a(passwd.o)
 .comment       0x00000000       0x20 loginutils/lib.a(su.o)
 .comment       0x00000000       0x20 miscutils/lib.a(crond.o)
 .comment       0x00000000       0x20 miscutils/lib.a(crontab.o)
 .comment       0x00000000       0x20 miscutils/lib.a(less.o)
 .comment       0x00000000       0x20 modutils/lib.a(insmod.o)
 .comment       0x00000000       0x20 modutils/lib.a(lsmod.o)
 .comment       0x00000000       0x20 modutils/lib.a(rmmod.o)
 .comment       0x00000000       0x20 networking/lib.a(arp.o)
 .comment       0x00000000       0x20 networking/lib.a(hostname.o)
 .comment       0x00000000       0x20 networking/lib.a(ifconfig.o)
 .comment       0x00000000       0x20 networking/lib.a(interface.o)
 .comment       0x00000000       0x20 networking/lib.a(ip.o)
 .comment       0x00000000       0x20 networking/lib.a(netstat.o)
 .comment       0x00000000       0x20 networking/lib.a(nslookup.o)
 .comment       0x00000000       0x20 networking/lib.a(ping.o)
 .comment       0x00000000       0x20 networking/lib.a(route.o)
 .comment       0x00000000       0x20 networking/lib.a(telnet.o)
 .comment       0x00000000       0x20 networking/lib.a(telnetd.o)
 .comment       0x00000000       0x20 networking/lib.a(tftp.o)
 .comment       0x00000000       0x20 networking/libiproute/lib.a(ip_parse_common_args.o)
 .comment       0x00000000       0x20 networking/libiproute/lib.a(ipaddress.o)
 .comment       0x00000000       0x20 networking/libiproute/lib.a(iplink.o)
 .comment       0x00000000       0x20 networking/libiproute/lib.a(iproute.o)
 .comment       0x00000000       0x20 networking/libiproute/lib.a(iprule.o)
 .comment       0x00000000       0x20 networking/libiproute/lib.a(iptunnel.o)
 .comment       0x00000000       0x20 networking/libiproute/lib.a(libnetlink.o)
 .comment       0x00000000       0x20 networking/libiproute/lib.a(ll_addr.o)
 .comment       0x00000000       0x20 networking/libiproute/lib.a(ll_map.o)
 .comment       0x00000000       0x20 networking/libiproute/lib.a(ll_types.o)
 .comment       0x00000000       0x20 networking/libiproute/lib.a(rt_names.o)
 .comment       0x00000000       0x20 networking/libiproute/lib.a(rtm_map.o)
 .comment       0x00000000       0x20 networking/libiproute/lib.a(utils.o)
 .comment       0x00000000       0x20 procps/lib.a(free.o)
 .comment       0x00000000       0x20 procps/lib.a(kill.o)
 .comment       0x00000000       0x20 procps/lib.a(pidof.o)
 .comment       0x00000000       0x20 procps/lib.a(ps.o)
 .comment       0x00000000       0x20 procps/lib.a(sysctl.o)
 .comment       0x00000000       0x20 procps/lib.a(top.o)
 .comment       0x00000000       0x20 procps/lib.a(uptime.o)
 .comment       0x00000000       0x20 shell/lib.a(ash.o)
 .comment       0x00000000       0x20 sysklogd/lib.a(klogd.o)
 .comment       0x00000000       0x20 sysklogd/lib.a(logread.o)
 .comment       0x00000000       0x20 sysklogd/lib.a(syslogd.o)
 .comment       0x00000000       0x20 util-linux/lib.a(dmesg.o)
 .comment       0x00000000       0x20 util-linux/lib.a(more.o)
 .comment       0x00000000       0x20 util-linux/lib.a(mount.o)
 .comment       0x00000000       0x20 util-linux/lib.a(pivot_root.o)
 .comment       0x00000000       0x20 util-linux/lib.a(rdate.o)
 .comment       0x00000000       0x20 util-linux/lib.a(umount.o)
 .comment       0x00000000       0x20 libbb/lib.a(bb_askpass.o)
 .comment       0x00000000       0x20 libbb/lib.a(bb_do_delay.o)
 .comment       0x00000000       0x20 libbb/lib.a(change_identity.o)
 .comment       0x00000000       0x20 libbb/lib.a(chomp.o)
 .comment       0x00000000       0x20 libbb/lib.a(correct_password.o)
 .comment       0x00000000       0x20 libbb/lib.a(create_icmp6_socket.o)
 .comment       0x00000000       0x20 libbb/lib.a(create_icmp_socket.o)
 .comment       0x00000000       0x20 libbb/lib.a(crypt_make_salt.o)
 .comment       0x00000000       0x20 libbb/lib.a(device_open.o)
 .comment       0x00000000       0x20 libbb/lib.a(find_pid_by_name.o)
 .comment       0x00000000       0x20 libbb/lib.a(herror_msg.o)
 .comment       0x00000000       0x20 libbb/lib.a(herror_msg_and_die.o)
 .comment       0x00000000       0x20 libbb/lib.a(inet_common.o)
 .comment       0x00000000       0x20 libbb/lib.a(info_msg.o)
 .comment       0x00000000       0x20 libbb/lib.a(kernel_version.o)
 .comment       0x00000000       0x20 libbb/lib.a(lineedit.o)
 .comment       0x00000000       0x20 libbb/lib.a(login.o)
 .comment       0x00000000       0x20 libbb/lib.a(loop.o)
 .comment       0x00000000       0x20 libbb/lib.a(match_fstype.o)
 .comment       0x00000000       0x20 libbb/lib.a(obscure.o)
 .comment       0x00000000       0x20 libbb/lib.a(pidfile.o)
 .comment       0x00000000       0x20 libbb/lib.a(pw_encrypt.o)
 .comment       0x00000000       0x20 libbb/lib.a(run_shell.o)
 .comment       0x00000000       0x20 libbb/lib.a(setup_environment.o)
 .comment       0x00000000       0x20 libbb/lib.a(simplify_path.o)
 .comment       0x00000000       0x20 libbb/lib.a(time.o)
 .comment       0x00000000       0x20 libbb/lib.a(trim.o)
 .comment       0x00000000       0x20 libbb/lib.a(u_signal_names.o)
 .comment       0x00000000       0x20 libbb/lib.a(update_passwd.o)
 .comment       0x00000000       0x20 libbb/lib.a(warn_ignoring_args.o)
 .comment       0x00000000       0x20 libbb/lib.a(xconnect.o)
 .comment       0x00000000       0x20 libbb/lib.a(xgethostbyname.o)
 .comment       0x00000000       0x20 /projects/hnd/tools/linux/hndtools-arm-linux-2.6.36-uclibc-4.5.3/lib/gcc/arm-brcm-linux-uclibcgnueabi/4.5.3/libgcc.a(bpabi.o)
 .comment       0x00000000       0x20 /projects/hnd/tools/linux/hndtools-arm-linux-2.6.36-uclibc-4.5.3/lib/gcc/arm-brcm-linux-uclibcgnueabi/4.5.3/libgcc.a(_divdi3.o)
 .comment       0x00000000       0x20 /projects/hnd/tools/linux/hndtools-arm-linux-2.6.36-uclibc-4.5.3/lib/gcc/arm-brcm-linux-uclibcgnueabi/4.5.3/libgcc.a(_udivdi3.o)
 .comment       0x00000000       0x20 /projects/hnd/tools/linux/hndtools-arm-linux-2.6.36-uclibc-4.5.3/lib/gcc/arm-brcm-linux-uclibcgnueabi/4.5.3/crtend.o
 .comment       0x00000000       0x2f /projects/hnd/tools/linux/hndtools-arm-linux-2.6.36-uclibc-4.5.3/arm-brcm-linux-uclibcgnueabi/sysroot/usr/lib/crtn.o

.ARM.attributes
                0x00000000       0x2b
 .ARM.attributes
                0x00000000       0x1f /projects/hnd/tools/linux/hndtools-arm-linux-2.6.36-uclibc-4.5.3/arm-brcm-linux-uclibcgnueabi/sysroot/usr/lib/crt1.o
 .ARM.attributes
                0x0000001f       0x1f /projects/hnd/tools/linux/hndtools-arm-linux-2.6.36-uclibc-4.5.3/arm-brcm-linux-uclibcgnueabi/sysroot/usr/lib/crti.o
 .ARM.attributes
                0x0000003e       0x2f /projects/hnd/tools/linux/hndtools-arm-linux-2.6.36-uclibc-4.5.3/lib/gcc/arm-brcm-linux-uclibcgnueabi/4.5.3/crtbegin.o
 .ARM.attributes
                0x0000006d       0x2f applets/built-in.o
 .ARM.attributes
                0x0000009c       0x2f archival/lib.a(bbunzip.o)
 .ARM.attributes
                0x000000cb       0x2f archival/lib.a(gzip.o)
 .ARM.attributes
                0x000000fa       0x2f archival/lib.a(tar.o)
 .ARM.attributes
                0x00000129       0x2f archival/libunarchive/lib.a(check_header_gzip.o)
 .ARM.attributes
                0x00000158       0x2f archival/libunarchive/lib.a(data_extract_all.o)
 .ARM.attributes
                0x00000187       0x2f archival/libunarchive/lib.a(data_extract_to_stdout.o)
 .ARM.attributes
                0x000001b6       0x2f archival/libunarchive/lib.a(data_skip.o)
 .ARM.attributes
                0x000001e5       0x2f archival/libunarchive/lib.a(decompress_bunzip2.o)
 .ARM.attributes
                0x00000214       0x2f archival/libunarchive/lib.a(decompress_uncompress.o)
 .ARM.attributes
                0x00000243       0x2f archival/libunarchive/lib.a(decompress_unzip.o)
 .ARM.attributes
                0x00000272       0x2f archival/libunarchive/lib.a(filter_accept_reject_list.o)
 .ARM.attributes
                0x000002a1       0x2f archival/libunarchive/lib.a(find_list_entry.o)
 .ARM.attributes
                0x000002d0       0x2f archival/libunarchive/lib.a(get_header_tar.o)
 .ARM.attributes
                0x000002ff       0x2f archival/libunarchive/lib.a(get_header_tar_gz.o)
 .ARM.attributes
                0x0000032e       0x2f archival/libunarchive/lib.a(header_list.o)
 .ARM.attributes
                0x0000035d       0x2f archival/libunarchive/lib.a(header_verbose_list.o)
 .ARM.attributes
                0x0000038c       0x2f archival/libunarchive/lib.a(init_handle.o)
 .ARM.attributes
                0x000003bb       0x2f archival/libunarchive/lib.a(open_transformer.o)
 .ARM.attributes
                0x000003ea       0x2f archival/libunarchive/lib.a(seek_by_jump.o)
 .ARM.attributes
                0x00000419       0x2f archival/libunarchive/lib.a(seek_by_read.o)
 .ARM.attributes
                0x00000448       0x2f archival/libunarchive/lib.a(data_align.o)
 .ARM.attributes
                0x00000477       0x2f archival/libunarchive/lib.a(filter_accept_all.o)
 .ARM.attributes
                0x000004a6       0x2f archival/libunarchive/lib.a(header_skip.o)
 .ARM.attributes
                0x000004d5       0x2f console-tools/lib.a(clear.o)
 .ARM.attributes
                0x00000504       0x2f console-tools/lib.a(reset.o)
 .ARM.attributes
                0x00000533       0x2f coreutils/lib.a(basename.o)
 .ARM.attributes
                0x00000562       0x2f coreutils/lib.a(cat.o)
 .ARM.attributes
                0x00000591       0x2f coreutils/lib.a(chmod.o)
 .ARM.attributes
                0x000005c0       0x2f coreutils/lib.a(cp.o)
 .ARM.attributes
                0x000005ef       0x2f coreutils/lib.a(cut.o)
 .ARM.attributes
                0x0000061e       0x2f coreutils/lib.a(date.o)
 .ARM.attributes
                0x0000064d       0x2f coreutils/lib.a(df.o)
 .ARM.attributes
                0x0000067c       0x2f coreutils/lib.a(dirname.o)
 .ARM.attributes
                0x000006ab       0x2f coreutils/lib.a(du.o)
 .ARM.attributes
                0x000006da       0x2f coreutils/lib.a(echo.o)
 .ARM.attributes
                0x00000709       0x2f coreutils/lib.a(env.o)
 .ARM.attributes
                0x00000738       0x2f coreutils/lib.a(expr.o)
 .ARM.attributes
                0x00000767       0x2f coreutils/lib.a(false.o)
 .ARM.attributes
                0x00000796       0x2f coreutils/lib.a(head.o)
 .ARM.attributes
                0x000007c5       0x2f coreutils/lib.a(hostid.o)
 .ARM.attributes
                0x000007f4       0x2f coreutils/lib.a(id.o)
 .ARM.attributes
                0x00000823       0x2f coreutils/lib.a(ln.o)
 .ARM.attributes
                0x00000852       0x2f coreutils/lib.a(ls.o)
 .ARM.attributes
                0x00000881       0x2f coreutils/lib.a(md5_sha1_sum.o)
 .ARM.attributes
                0x000008b0       0x2f coreutils/lib.a(mkdir.o)
 .ARM.attributes
                0x000008df       0x2f coreutils/lib.a(mkfifo.o)
 .ARM.attributes
                0x0000090e       0x2f coreutils/lib.a(mknod.o)
 .ARM.attributes
                0x0000093d       0x2f coreutils/lib.a(mv.o)
 .ARM.attributes
                0x0000096c       0x2f coreutils/lib.a(nice.o)
 .ARM.attributes
                0x0000099b       0x2f coreutils/lib.a(printenv.o)
 .ARM.attributes
                0x000009ca       0x2f coreutils/lib.a(printf.o)
 .ARM.attributes
                0x000009f9       0x2f coreutils/lib.a(pwd.o)
 .ARM.attributes
                0x00000a28       0x2f coreutils/lib.a(rm.o)
 .ARM.attributes
                0x00000a57       0x2f coreutils/lib.a(rmdir.o)
 .ARM.attributes
                0x00000a86       0x2f coreutils/lib.a(sleep.o)
 .ARM.attributes
                0x00000ab5       0x2f coreutils/lib.a(tail.o)
 .ARM.attributes
                0x00000ae4       0x2f coreutils/lib.a(test.o)
 .ARM.attributes
                0x00000b13       0x2f coreutils/lib.a(touch.o)
 .ARM.attributes
                0x00000b42       0x2f coreutils/lib.a(tr.o)
 .ARM.attributes
                0x00000b71       0x2f coreutils/lib.a(true.o)
 .ARM.attributes
                0x00000ba0       0x2f coreutils/lib.a(uname.o)
 .ARM.attributes
                0x00000bcf       0x2f coreutils/lib.a(usleep.o)
 .ARM.attributes
                0x00000bfe       0x2f coreutils/lib.a(wc.o)
 .ARM.attributes
                0x00000c2d       0x2f coreutils/lib.a(yes.o)
 .ARM.attributes
                0x00000c5c       0x2f coreutils/libcoreutils/lib.a(cp_mv_stat.o)
 .ARM.attributes
                0x00000c8b       0x2f coreutils/libcoreutils/lib.a(getopt_mk_fifo_nod.o)
 .ARM.attributes
                0x00000cba       0x2f editors/lib.a(awk.o)
 .ARM.attributes
                0x00000ce9       0x2f editors/lib.a(sed.o)
 .ARM.attributes
                0x00000d18       0x2f editors/lib.a(vi.o)
 .ARM.attributes
                0x00000d47       0x2f findutils/lib.a(find.o)
 .ARM.attributes
                0x00000d76       0x2f findutils/lib.a(grep.o)
 .ARM.attributes
                0x00000da5       0x2f findutils/lib.a(xargs.o)
 .ARM.attributes
                0x00000dd4       0x2f init/lib.a(halt.o)
 .ARM.attributes
                0x00000e03       0x2f libbb/lib.a(ask_confirmation.o)
 .ARM.attributes
                0x00000e32       0x2f libbb/lib.a(bb_basename.o)
 .ARM.attributes
                0x00000e61       0x2f libbb/lib.a(bb_pwd.o)
 .ARM.attributes
                0x00000e90       0x2f libbb/lib.a(bb_strtonum.o)
 .ARM.attributes
                0x00000ebf       0x2f libbb/lib.a(compare_string_array.o)
 .ARM.attributes
                0x00000eee       0x2f libbb/lib.a(concat_path_file.o)
 .ARM.attributes
                0x00000f1d       0x2f libbb/lib.a(concat_subpath_file.o)
 .ARM.attributes
                0x00000f4c       0x2f libbb/lib.a(copy_file.o)
 .ARM.attributes
                0x00000f7b       0x2f libbb/lib.a(copyfd.o)
 .ARM.attributes
                0x00000faa       0x2f libbb/lib.a(crc32.o)
 .ARM.attributes
                0x00000fd9       0x2f libbb/lib.a(default_error_retval.o)
 .ARM.attributes
                0x00001008       0x2f libbb/lib.a(error_msg.o)
 .ARM.attributes
                0x00001037       0x2f libbb/lib.a(error_msg_and_die.o)
 .ARM.attributes
                0x00001066       0x2f libbb/lib.a(fclose_nonstdin.o)
 .ARM.attributes
                0x00001095       0x2f libbb/lib.a(fflush_stdout_and_exit.o)
 .ARM.attributes
                0x000010c4       0x2f libbb/lib.a(find_mount_point.o)
 .ARM.attributes
                0x000010f3       0x2f libbb/lib.a(find_root_device.o)
 .ARM.attributes
                0x00001122       0x2f libbb/lib.a(full_write.o)
 .ARM.attributes
                0x00001151       0x2f libbb/lib.a(get_last_path_component.o)
 .ARM.attributes
                0x00001180       0x2f libbb/lib.a(get_line_from_file.o)
 .ARM.attributes
                0x000011af       0x2f libbb/lib.a(getopt32.o)
 .ARM.attributes
                0x000011de       0x2f libbb/lib.a(human_readable.o)
 .ARM.attributes
                0x0000120d       0x2f libbb/lib.a(inode_hash.o)
 .ARM.attributes
                0x0000123c       0x2f libbb/lib.a(isdirectory.o)
 .ARM.attributes
                0x0000126b       0x2f libbb/lib.a(last_char_is.o)
 .ARM.attributes
                0x0000129a       0x2f libbb/lib.a(llist.o)
 .ARM.attributes
                0x000012c9       0x2f libbb/lib.a(make_directory.o)
 .ARM.attributes
                0x000012f8       0x2f libbb/lib.a(makedev.o)
 .ARM.attributes
                0x00001327       0x2f libbb/lib.a(md5.o)
 .ARM.attributes
                0x00001356       0x2f libbb/lib.a(messages.o)
 .ARM.attributes
                0x00001385       0x2f libbb/lib.a(mode_string.o)
 .ARM.attributes
                0x000013b4       0x2f libbb/lib.a(mtab_file.o)
 .ARM.attributes
                0x000013e3       0x2f libbb/lib.a(parse_mode.o)
 .ARM.attributes
                0x00001412       0x2f libbb/lib.a(perror_msg.o)
 .ARM.attributes
                0x00001441       0x2f libbb/lib.a(perror_msg_and_die.o)
 .ARM.attributes
                0x00001470       0x2f libbb/lib.a(perror_nomsg_and_die.o)
 .ARM.attributes
                0x0000149f       0x2f libbb/lib.a(process_escape_sequence.o)
 .ARM.attributes
                0x000014ce       0x2f libbb/lib.a(procps.o)
 .ARM.attributes
                0x000014fd       0x2f libbb/lib.a(read.o)
 .ARM.attributes
                0x0000152c       0x2f libbb/lib.a(recursive_action.o)
 .ARM.attributes
                0x0000155b       0x2f libbb/lib.a(remove_file.o)
 .ARM.attributes
                0x0000158a       0x2f libbb/lib.a(safe_strncpy.o)
 .ARM.attributes
                0x000015b9       0x2f libbb/lib.a(safe_write.o)
 .ARM.attributes
                0x000015e8       0x2f libbb/lib.a(skip_whitespace.o)
 .ARM.attributes
                0x00001617       0x2f libbb/lib.a(verror_msg.o)
 .ARM.attributes
                0x00001646       0x2f libbb/lib.a(vfork_daemon_rexec.o)
 .ARM.attributes
                0x00001675       0x2f libbb/lib.a(wfopen.o)
 .ARM.attributes
                0x000016a4       0x2f libbb/lib.a(wfopen_input.o)
 .ARM.attributes
                0x000016d3       0x2f libbb/lib.a(xatonum.o)
 .ARM.attributes
                0x00001702       0x2f libbb/lib.a(xfuncs.o)
 .ARM.attributes
                0x00001731       0x2f libbb/lib.a(xgetcwd.o)
 .ARM.attributes
                0x00001760       0x2f libbb/lib.a(xreadlink.o)
 .ARM.attributes
                0x0000178f       0x2f libbb/lib.a(xregcomp.o)
 .ARM.attributes
                0x000017be       0x2f loginutils/lib.a(addgroup.o)
 .ARM.attributes
                0x000017ed       0x2f loginutils/lib.a(adduser.o)
 .ARM.attributes
                0x0000181c       0x2f loginutils/lib.a(deluser.o)
 .ARM.attributes
                0x0000184b       0x2f loginutils/lib.a(passwd.o)
 .ARM.attributes
                0x0000187a       0x2f loginutils/lib.a(su.o)
 .ARM.attributes
                0x000018a9       0x2f miscutils/lib.a(crond.o)
 .ARM.attributes
                0x000018d8       0x2f miscutils/lib.a(crontab.o)
 .ARM.attributes
                0x00001907       0x2f miscutils/lib.a(less.o)
 .ARM.attributes
                0x00001936       0x2f modutils/lib.a(insmod.o)
 .ARM.attributes
                0x00001965       0x2f modutils/lib.a(lsmod.o)
 .ARM.attributes
                0x00001994       0x2f modutils/lib.a(rmmod.o)
 .ARM.attributes
                0x000019c3       0x2f networking/lib.a(arp.o)
 .ARM.attributes
                0x000019f2       0x2f networking/lib.a(hostname.o)
 .ARM.attributes
                0x00001a21       0x2f networking/lib.a(ifconfig.o)
 .ARM.attributes
                0x00001a50       0x2f networking/lib.a(interface.o)
 .ARM.attributes
                0x00001a7f       0x2f networking/lib.a(ip.o)
 .ARM.attributes
                0x00001aae       0x2f networking/lib.a(netstat.o)
 .ARM.attributes
                0x00001add       0x2f networking/lib.a(nslookup.o)
 .ARM.attributes
                0x00001b0c       0x2f networking/lib.a(ping.o)
 .ARM.attributes
                0x00001b3b       0x2f networking/lib.a(route.o)
 .ARM.attributes
                0x00001b6a       0x2f networking/lib.a(telnet.o)
 .ARM.attributes
                0x00001b99       0x2f networking/lib.a(telnetd.o)
 .ARM.attributes
                0x00001bc8       0x2f networking/lib.a(tftp.o)
 .ARM.attributes
                0x00001bf7       0x2f networking/libiproute/lib.a(ip_parse_common_args.o)
 .ARM.attributes
                0x00001c26       0x2f networking/libiproute/lib.a(ipaddress.o)
 .ARM.attributes
                0x00001c55       0x2f networking/libiproute/lib.a(iplink.o)
 .ARM.attributes
                0x00001c84       0x2f networking/libiproute/lib.a(iproute.o)
 .ARM.attributes
                0x00001cb3       0x2f networking/libiproute/lib.a(iprule.o)
 .ARM.attributes
                0x00001ce2       0x2f networking/libiproute/lib.a(iptunnel.o)
 .ARM.attributes
                0x00001d11       0x2f networking/libiproute/lib.a(libnetlink.o)
 .ARM.attributes
                0x00001d40       0x2f networking/libiproute/lib.a(ll_addr.o)
 .ARM.attributes
                0x00001d6f       0x2f networking/libiproute/lib.a(ll_map.o)
 .ARM.attributes
                0x00001d9e       0x2f networking/libiproute/lib.a(ll_types.o)
 .ARM.attributes
                0x00001dcd       0x2f networking/libiproute/lib.a(rt_names.o)
 .ARM.attributes
                0x00001dfc       0x2f networking/libiproute/lib.a(rtm_map.o)
 .ARM.attributes
                0x00001e2b       0x2f networking/libiproute/lib.a(utils.o)
 .ARM.attributes
                0x00001e5a       0x2f procps/lib.a(free.o)
 .ARM.attributes
                0x00001e89       0x2f procps/lib.a(kill.o)
 .ARM.attributes
                0x00001eb8       0x2f procps/lib.a(pidof.o)
 .ARM.attributes
                0x00001ee7       0x2f procps/lib.a(ps.o)
 .ARM.attributes
                0x00001f16       0x2f procps/lib.a(sysctl.o)
 .ARM.attributes
                0x00001f45       0x2f procps/lib.a(top.o)
 .ARM.attributes
                0x00001f74       0x2f procps/lib.a(uptime.o)
 .ARM.attributes
                0x00001fa3       0x2f shell/lib.a(ash.o)
 .ARM.attributes
                0x00001fd2       0x2f sysklogd/lib.a(klogd.o)
 .ARM.attributes
                0x00002001       0x2f sysklogd/lib.a(logread.o)
 .ARM.attributes
                0x00002030       0x2f sysklogd/lib.a(syslogd.o)
 .ARM.attributes
                0x0000205f       0x2f util-linux/lib.a(dmesg.o)
 .ARM.attributes
                0x0000208e       0x2f util-linux/lib.a(more.o)
 .ARM.attributes
                0x000020bd       0x2f util-linux/lib.a(mount.o)
 .ARM.attributes
                0x000020ec       0x2f util-linux/lib.a(pivot_root.o)
 .ARM.attributes
                0x0000211b       0x2f util-linux/lib.a(rdate.o)
 .ARM.attributes
                0x0000214a       0x2f util-linux/lib.a(umount.o)
 .ARM.attributes
                0x00002179       0x2f libbb/lib.a(bb_askpass.o)
 .ARM.attributes
                0x000021a8       0x2f libbb/lib.a(bb_do_delay.o)
 .ARM.attributes
                0x000021d7       0x2f libbb/lib.a(change_identity.o)
 .ARM.attributes
                0x00002206       0x2f libbb/lib.a(chomp.o)
 .ARM.attributes
                0x00002235       0x2f libbb/lib.a(correct_password.o)
 .ARM.attributes
                0x00002264       0x2f libbb/lib.a(create_icmp6_socket.o)
 .ARM.attributes
                0x00002293       0x2f libbb/lib.a(create_icmp_socket.o)
 .ARM.attributes
                0x000022c2       0x2f libbb/lib.a(crypt_make_salt.o)
 .ARM.attributes
                0x000022f1       0x2f libbb/lib.a(device_open.o)
 .ARM.attributes
                0x00002320       0x2f libbb/lib.a(find_pid_by_name.o)
 .ARM.attributes
                0x0000234f       0x2f libbb/lib.a(herror_msg.o)
 .ARM.attributes
                0x0000237e       0x2f libbb/lib.a(herror_msg_and_die.o)
 .ARM.attributes
                0x000023ad       0x2f libbb/lib.a(inet_common.o)
 .ARM.attributes
                0x000023dc       0x2f libbb/lib.a(info_msg.o)
 .ARM.attributes
                0x0000240b       0x2f libbb/lib.a(kernel_version.o)
 .ARM.attributes
                0x0000243a       0x2f libbb/lib.a(lineedit.o)
 .ARM.attributes
                0x00002469       0x2f libbb/lib.a(login.o)
 .ARM.attributes
                0x00002498       0x2f libbb/lib.a(loop.o)
 .ARM.attributes
                0x000024c7       0x2f libbb/lib.a(match_fstype.o)
 .ARM.attributes
                0x000024f6       0x2f libbb/lib.a(obscure.o)
 .ARM.attributes
                0x00002525       0x2f libbb/lib.a(pidfile.o)
 .ARM.attributes
                0x00002554       0x2f libbb/lib.a(pw_encrypt.o)
 .ARM.attributes
                0x00002583       0x2f libbb/lib.a(run_shell.o)
 .ARM.attributes
                0x000025b2       0x2f libbb/lib.a(setup_environment.o)
 .ARM.attributes
                0x000025e1       0x2f libbb/lib.a(simplify_path.o)
 .ARM.attributes
                0x00002610       0x2f libbb/lib.a(time.o)
 .ARM.attributes
                0x0000263f       0x2f libbb/lib.a(trim.o)
 .ARM.attributes
                0x0000266e       0x2f libbb/lib.a(u_signal_names.o)
 .ARM.attributes
                0x0000269d       0x2f libbb/lib.a(update_passwd.o)
 .ARM.attributes
                0x000026cc       0x2f libbb/lib.a(warn_ignoring_args.o)
 .ARM.attributes
                0x000026fb       0x2f libbb/lib.a(xconnect.o)
 .ARM.attributes
                0x0000272a       0x2f libbb/lib.a(xgethostbyname.o)
 .ARM.attributes
                0x00002759       0x21 /projects/hnd/tools/linux/hndtools-arm-linux-2.6.36-uclibc-4.5.3/lib/gcc/arm-brcm-linux-uclibcgnueabi/4.5.3/libgcc.a(_udivsi3.o)
 .ARM.attributes
                0x0000277a       0x21 /projects/hnd/tools/linux/hndtools-arm-linux-2.6.36-uclibc-4.5.3/lib/gcc/arm-brcm-linux-uclibcgnueabi/4.5.3/libgcc.a(_divsi3.o)
 .ARM.attributes
                0x0000279b       0x21 /projects/hnd/tools/linux/hndtools-arm-linux-2.6.36-uclibc-4.5.3/lib/gcc/arm-brcm-linux-uclibcgnueabi/4.5.3/libgcc.a(_lshrdi3.o)
 .ARM.attributes
                0x000027bc       0x21 /projects/hnd/tools/linux/hndtools-arm-linux-2.6.36-uclibc-4.5.3/lib/gcc/arm-brcm-linux-uclibcgnueabi/4.5.3/libgcc.a(_arm_addsubdf3.o)
 .ARM.attributes
                0x000027dd       0x21 /projects/hnd/tools/linux/hndtools-arm-linux-2.6.36-uclibc-4.5.3/lib/gcc/arm-brcm-linux-uclibcgnueabi/4.5.3/libgcc.a(_arm_muldivdf3.o)
 .ARM.attributes
                0x000027fe       0x21 /projects/hnd/tools/linux/hndtools-arm-linux-2.6.36-uclibc-4.5.3/lib/gcc/arm-brcm-linux-uclibcgnueabi/4.5.3/libgcc.a(_arm_cmpdf2.o)
 .ARM.attributes
                0x0000281f       0x21 /projects/hnd/tools/linux/hndtools-arm-linux-2.6.36-uclibc-4.5.3/lib/gcc/arm-brcm-linux-uclibcgnueabi/4.5.3/libgcc.a(_arm_fixdfsi.o)
 .ARM.attributes
                0x00002840       0x21 /projects/hnd/tools/linux/hndtools-arm-linux-2.6.36-uclibc-4.5.3/lib/gcc/arm-brcm-linux-uclibcgnueabi/4.5.3/libgcc.a(_arm_fixunsdfsi.o)
 .ARM.attributes
                0x00002861       0x21 /projects/hnd/tools/linux/hndtools-arm-linux-2.6.36-uclibc-4.5.3/lib/gcc/arm-brcm-linux-uclibcgnueabi/4.5.3/libgcc.a(_aeabi_ldivmod.o)
 .ARM.attributes
                0x00002882       0x21 /projects/hnd/tools/linux/hndtools-arm-linux-2.6.36-uclibc-4.5.3/lib/gcc/arm-brcm-linux-uclibcgnueabi/4.5.3/libgcc.a(_aeabi_uldivmod.o)
 .ARM.attributes
                0x000028a3       0x21 /projects/hnd/tools/linux/hndtools-arm-linux-2.6.36-uclibc-4.5.3/lib/gcc/arm-brcm-linux-uclibcgnueabi/4.5.3/libgcc.a(_dvmd_lnx.o)
 .ARM.attributes
                0x000028c4       0x2f /projects/hnd/tools/linux/hndtools-arm-linux-2.6.36-uclibc-4.5.3/lib/gcc/arm-brcm-linux-uclibcgnueabi/4.5.3/libgcc.a(bpabi.o)
 .ARM.attributes
                0x000028f3       0x2f /projects/hnd/tools/linux/hndtools-arm-linux-2.6.36-uclibc-4.5.3/lib/gcc/arm-brcm-linux-uclibcgnueabi/4.5.3/libgcc.a(_divdi3.o)
 .ARM.attributes
                0x00002922       0x2f /projects/hnd/tools/linux/hndtools-arm-linux-2.6.36-uclibc-4.5.3/lib/gcc/arm-brcm-linux-uclibcgnueabi/4.5.3/libgcc.a(_udivdi3.o)
 .ARM.attributes
                0x00002951       0x2f /projects/hnd/tools/linux/hndtools-arm-linux-2.6.36-uclibc-4.5.3/arm-brcm-linux-uclibcgnueabi/sysroot/usr/lib/uclibc_nonshared.a(atexit.os)
 .ARM.attributes
                0x00002980       0x2f /projects/hnd/tools/linux/hndtools-arm-linux-2.6.36-uclibc-4.5.3/lib/gcc/arm-brcm-linux-uclibcgnueabi/4.5.3/crtend.o
 .ARM.attributes
                0x000029af       0x1f /projects/hnd/tools/linux/hndtools-arm-linux-2.6.36-uclibc-4.5.3/arm-brcm-linux-uclibcgnueabi/sysroot/usr/lib/crtn.o

.debug
 *(.debug)

.line
 *(.line)

.debug_srcinfo
 *(.debug_srcinfo)

.debug_sfnames
 *(.debug_sfnames)

.debug_aranges  0x00000000      0x1c0
 *(.debug_aranges)
 .debug_aranges
                0x00000000       0x20 /projects/hnd/tools/linux/hndtools-arm-linux-2.6.36-uclibc-4.5.3/lib/gcc/arm-brcm-linux-uclibcgnueabi/4.5.3/libgcc.a(_udivsi3.o)
 .debug_aranges
                0x00000020       0x20 /projects/hnd/tools/linux/hndtools-arm-linux-2.6.36-uclibc-4.5.3/lib/gcc/arm-brcm-linux-uclibcgnueabi/4.5.3/libgcc.a(_divsi3.o)
 .debug_aranges
                0x00000040       0x20 /projects/hnd/tools/linux/hndtools-arm-linux-2.6.36-uclibc-4.5.3/lib/gcc/arm-brcm-linux-uclibcgnueabi/4.5.3/libgcc.a(_lshrdi3.o)
 .debug_aranges
                0x00000060       0x20 /projects/hnd/tools/linux/hndtools-arm-linux-2.6.36-uclibc-4.5.3/lib/gcc/arm-brcm-linux-uclibcgnueabi/4.5.3/libgcc.a(_arm_addsubdf3.o)
 .debug_aranges
                0x00000080       0x20 /projects/hnd/tools/linux/hndtools-arm-linux-2.6.36-uclibc-4.5.3/lib/gcc/arm-brcm-linux-uclibcgnueabi/4.5.3/libgcc.a(_arm_muldivdf3.o)
 .debug_aranges
                0x000000a0       0x20 /projects/hnd/tools/linux/hndtools-arm-linux-2.6.36-uclibc-4.5.3/lib/gcc/arm-brcm-linux-uclibcgnueabi/4.5.3/libgcc.a(_arm_cmpdf2.o)
 .debug_aranges
                0x000000c0       0x20 /projects/hnd/tools/linux/hndtools-arm-linux-2.6.36-uclibc-4.5.3/lib/gcc/arm-brcm-linux-uclibcgnueabi/4.5.3/libgcc.a(_arm_fixdfsi.o)
 .debug_aranges
                0x000000e0       0x20 /projects/hnd/tools/linux/hndtools-arm-linux-2.6.36-uclibc-4.5.3/lib/gcc/arm-brcm-linux-uclibcgnueabi/4.5.3/libgcc.a(_arm_fixunsdfsi.o)
 .debug_aranges
                0x00000100       0x20 /projects/hnd/tools/linux/hndtools-arm-linux-2.6.36-uclibc-4.5.3/lib/gcc/arm-brcm-linux-uclibcgnueabi/4.5.3/libgcc.a(_aeabi_ldivmod.o)
 .debug_aranges
                0x00000120       0x20 /projects/hnd/tools/linux/hndtools-arm-linux-2.6.36-uclibc-4.5.3/lib/gcc/arm-brcm-linux-uclibcgnueabi/4.5.3/libgcc.a(_aeabi_uldivmod.o)
 .debug_aranges
                0x00000140       0x20 /projects/hnd/tools/linux/hndtools-arm-linux-2.6.36-uclibc-4.5.3/lib/gcc/arm-brcm-linux-uclibcgnueabi/4.5.3/libgcc.a(_dvmd_lnx.o)
 .debug_aranges
                0x00000160       0x20 /projects/hnd/tools/linux/hndtools-arm-linux-2.6.36-uclibc-4.5.3/lib/gcc/arm-brcm-linux-uclibcgnueabi/4.5.3/libgcc.a(bpabi.o)
 .debug_aranges
                0x00000180       0x20 /projects/hnd/tools/linux/hndtools-arm-linux-2.6.36-uclibc-4.5.3/lib/gcc/arm-brcm-linux-uclibcgnueabi/4.5.3/libgcc.a(_divdi3.o)
 .debug_aranges
                0x000001a0       0x20 /projects/hnd/tools/linux/hndtools-arm-linux-2.6.36-uclibc-4.5.3/lib/gcc/arm-brcm-linux-uclibcgnueabi/4.5.3/libgcc.a(_udivdi3.o)

.debug_pubnames
                0x00000000       0x84
 *(.debug_pubnames)
 .debug_pubnames
                0x00000000       0x45 /projects/hnd/tools/linux/hndtools-arm-linux-2.6.36-uclibc-4.5.3/lib/gcc/arm-brcm-linux-uclibcgnueabi/4.5.3/libgcc.a(bpabi.o)
 .debug_pubnames
                0x00000045       0x1f /projects/hnd/tools/linux/hndtools-arm-linux-2.6.36-uclibc-4.5.3/lib/gcc/arm-brcm-linux-uclibcgnueabi/4.5.3/libgcc.a(_divdi3.o)
 .debug_pubnames
                0x00000064       0x20 /projects/hnd/tools/linux/hndtools-arm-linux-2.6.36-uclibc-4.5.3/lib/gcc/arm-brcm-linux-uclibcgnueabi/4.5.3/libgcc.a(_udivdi3.o)

.debug_info     0x00000000     0x183c
 *(.debug_info .gnu.linkonce.wi.*)
 .debug_info    0x00000000      0x113 /projects/hnd/tools/linux/hndtools-arm-linux-2.6.36-uclibc-4.5.3/lib/gcc/arm-brcm-linux-uclibcgnueabi/4.5.3/libgcc.a(_udivsi3.o)
 .debug_info    0x00000113      0x113 /projects/hnd/tools/linux/hndtools-arm-linux-2.6.36-uclibc-4.5.3/lib/gcc/arm-brcm-linux-uclibcgnueabi/4.5.3/libgcc.a(_divsi3.o)
 .debug_info    0x00000226      0x113 /projects/hnd/tools/linux/hndtools-arm-linux-2.6.36-uclibc-4.5.3/lib/gcc/arm-brcm-linux-uclibcgnueabi/4.5.3/libgcc.a(_lshrdi3.o)
 .debug_info    0x00000339      0x112 /projects/hnd/tools/linux/hndtools-arm-linux-2.6.36-uclibc-4.5.3/lib/gcc/arm-brcm-linux-uclibcgnueabi/4.5.3/libgcc.a(_arm_addsubdf3.o)
 .debug_info    0x0000044b      0x112 /projects/hnd/tools/linux/hndtools-arm-linux-2.6.36-uclibc-4.5.3/lib/gcc/arm-brcm-linux-uclibcgnueabi/4.5.3/libgcc.a(_arm_muldivdf3.o)
 .debug_info    0x0000055d      0x112 /projects/hnd/tools/linux/hndtools-arm-linux-2.6.36-uclibc-4.5.3/lib/gcc/arm-brcm-linux-uclibcgnueabi/4.5.3/libgcc.a(_arm_cmpdf2.o)
 .debug_info    0x0000066f      0x112 /projects/hnd/tools/linux/hndtools-arm-linux-2.6.36-uclibc-4.5.3/lib/gcc/arm-brcm-linux-uclibcgnueabi/4.5.3/libgcc.a(_arm_fixdfsi.o)
 .debug_info    0x00000781      0x112 /projects/hnd/tools/linux/hndtools-arm-linux-2.6.36-uclibc-4.5.3/lib/gcc/arm-brcm-linux-uclibcgnueabi/4.5.3/libgcc.a(_arm_fixunsdfsi.o)
 .debug_info    0x00000893      0x10d /projects/hnd/tools/linux/hndtools-arm-linux-2.6.36-uclibc-4.5.3/lib/gcc/arm-brcm-linux-uclibcgnueabi/4.5.3/libgcc.a(_aeabi_ldivmod.o)
 .debug_info    0x000009a0      0x10d /projects/hnd/tools/linux/hndtools-arm-linux-2.6.36-uclibc-4.5.3/lib/gcc/arm-brcm-linux-uclibcgnueabi/4.5.3/libgcc.a(_aeabi_uldivmod.o)
 .debug_info    0x00000aad      0x113 /projects/hnd/tools/linux/hndtools-arm-linux-2.6.36-uclibc-4.5.3/lib/gcc/arm-brcm-linux-uclibcgnueabi/4.5.3/libgcc.a(_dvmd_lnx.o)
 .debug_info    0x00000bc0       0xec /projects/hnd/tools/linux/hndtools-arm-linux-2.6.36-uclibc-4.5.3/lib/gcc/arm-brcm-linux-uclibcgnueabi/4.5.3/libgcc.a(bpabi.o)
 .debug_info    0x00000cac      0x5e5 /projects/hnd/tools/linux/hndtools-arm-linux-2.6.36-uclibc-4.5.3/lib/gcc/arm-brcm-linux-uclibcgnueabi/4.5.3/libgcc.a(_divdi3.o)
 .debug_info    0x00001291      0x5ab /projects/hnd/tools/linux/hndtools-arm-linux-2.6.36-uclibc-4.5.3/lib/gcc/arm-brcm-linux-uclibcgnueabi/4.5.3/libgcc.a(_udivdi3.o)

.debug_abbrev   0x00000000      0x40f
 *(.debug_abbrev)
 .debug_abbrev  0x00000000       0x14 /projects/hnd/tools/linux/hndtools-arm-linux-2.6.36-uclibc-4.5.3/lib/gcc/arm-brcm-linux-uclibcgnueabi/4.5.3/libgcc.a(_udivsi3.o)
 .debug_abbrev  0x00000014       0x14 /projects/hnd/tools/linux/hndtools-arm-linux-2.6.36-uclibc-4.5.3/lib/gcc/arm-brcm-linux-uclibcgnueabi/4.5.3/libgcc.a(_divsi3.o)
 .debug_abbrev  0x00000028       0x14 /projects/hnd/tools/linux/hndtools-arm-linux-2.6.36-uclibc-4.5.3/lib/gcc/arm-brcm-linux-uclibcgnueabi/4.5.3/libgcc.a(_lshrdi3.o)
 .debug_abbrev  0x0000003c       0x14 /projects/hnd/tools/linux/hndtools-arm-linux-2.6.36-uclibc-4.5.3/lib/gcc/arm-brcm-linux-uclibcgnueabi/4.5.3/libgcc.a(_arm_addsubdf3.o)
 .debug_abbrev  0x00000050       0x14 /projects/hnd/tools/linux/hndtools-arm-linux-2.6.36-uclibc-4.5.3/lib/gcc/arm-brcm-linux-uclibcgnueabi/4.5.3/libgcc.a(_arm_muldivdf3.o)
 .debug_abbrev  0x00000064       0x14 /projects/hnd/tools/linux/hndtools-arm-linux-2.6.36-uclibc-4.5.3/lib/gcc/arm-brcm-linux-uclibcgnueabi/4.5.3/libgcc.a(_arm_cmpdf2.o)
 .debug_abbrev  0x00000078       0x14 /projects/hnd/tools/linux/hndtools-arm-linux-2.6.36-uclibc-4.5.3/lib/gcc/arm-brcm-linux-uclibcgnueabi/4.5.3/libgcc.a(_arm_fixdfsi.o)
 .debug_abbrev  0x0000008c       0x14 /projects/hnd/tools/linux/hndtools-arm-linux-2.6.36-uclibc-4.5.3/lib/gcc/arm-brcm-linux-uclibcgnueabi/4.5.3/libgcc.a(_arm_fixunsdfsi.o)
 .debug_abbrev  0x000000a0       0x14 /projects/hnd/tools/linux/hndtools-arm-linux-2.6.36-uclibc-4.5.3/lib/gcc/arm-brcm-linux-uclibcgnueabi/4.5.3/libgcc.a(_aeabi_ldivmod.o)
 .debug_abbrev  0x000000b4       0x14 /projects/hnd/tools/linux/hndtools-arm-linux-2.6.36-uclibc-4.5.3/lib/gcc/arm-brcm-linux-uclibcgnueabi/4.5.3/libgcc.a(_aeabi_uldivmod.o)
 .debug_abbrev  0x000000c8       0x14 /projects/hnd/tools/linux/hndtools-arm-linux-2.6.36-uclibc-4.5.3/lib/gcc/arm-brcm-linux-uclibcgnueabi/4.5.3/libgcc.a(_dvmd_lnx.o)
 .debug_abbrev  0x000000dc       0x6c /projects/hnd/tools/linux/hndtools-arm-linux-2.6.36-uclibc-4.5.3/lib/gcc/arm-brcm-linux-uclibcgnueabi/4.5.3/libgcc.a(bpabi.o)
 .debug_abbrev  0x00000148      0x16b /projects/hnd/tools/linux/hndtools-arm-linux-2.6.36-uclibc-4.5.3/lib/gcc/arm-brcm-linux-uclibcgnueabi/4.5.3/libgcc.a(_divdi3.o)
 .debug_abbrev  0x000002b3      0x15c /projects/hnd/tools/linux/hndtools-arm-linux-2.6.36-uclibc-4.5.3/lib/gcc/arm-brcm-linux-uclibcgnueabi/4.5.3/libgcc.a(_udivdi3.o)

.debug_line     0x00000000      0xe07
 *(.debug_line)
 .debug_line    0x00000000       0xc8 /projects/hnd/tools/linux/hndtools-arm-linux-2.6.36-uclibc-4.5.3/lib/gcc/arm-brcm-linux-uclibcgnueabi/4.5.3/libgcc.a(_udivsi3.o)
 .debug_line    0x000000c8       0xd4 /projects/hnd/tools/linux/hndtools-arm-linux-2.6.36-uclibc-4.5.3/lib/gcc/arm-brcm-linux-uclibcgnueabi/4.5.3/libgcc.a(_divsi3.o)
 .debug_line    0x0000019c       0xaa /projects/hnd/tools/linux/hndtools-arm-linux-2.6.36-uclibc-4.5.3/lib/gcc/arm-brcm-linux-uclibcgnueabi/4.5.3/libgcc.a(_lshrdi3.o)
 .debug_line    0x00000246      0x21f /projects/hnd/tools/linux/hndtools-arm-linux-2.6.36-uclibc-4.5.3/lib/gcc/arm-brcm-linux-uclibcgnueabi/4.5.3/libgcc.a(_arm_addsubdf3.o)
 .debug_line    0x00000465      0x240 /projects/hnd/tools/linux/hndtools-arm-linux-2.6.36-uclibc-4.5.3/lib/gcc/arm-brcm-linux-uclibcgnueabi/4.5.3/libgcc.a(_arm_muldivdf3.o)
 .debug_line    0x000006a5      0x137 /projects/hnd/tools/linux/hndtools-arm-linux-2.6.36-uclibc-4.5.3/lib/gcc/arm-brcm-linux-uclibcgnueabi/4.5.3/libgcc.a(_arm_cmpdf2.o)
 .debug_line    0x000007dc       0xb9 /projects/hnd/tools/linux/hndtools-arm-linux-2.6.36-uclibc-4.5.3/lib/gcc/arm-brcm-linux-uclibcgnueabi/4.5.3/libgcc.a(_arm_fixdfsi.o)
 .debug_line    0x00000895       0xb7 /projects/hnd/tools/linux/hndtools-arm-linux-2.6.36-uclibc-4.5.3/lib/gcc/arm-brcm-linux-uclibcgnueabi/4.5.3/libgcc.a(_arm_fixunsdfsi.o)
 .debug_line    0x0000094c       0xa5 /projects/hnd/tools/linux/hndtools-arm-linux-2.6.36-uclibc-4.5.3/lib/gcc/arm-brcm-linux-uclibcgnueabi/4.5.3/libgcc.a(_aeabi_ldivmod.o)
 .debug_line    0x000009f1       0xa7 /projects/hnd/tools/linux/hndtools-arm-linux-2.6.36-uclibc-4.5.3/lib/gcc/arm-brcm-linux-uclibcgnueabi/4.5.3/libgcc.a(_aeabi_uldivmod.o)
 .debug_line    0x00000a98       0xaa /projects/hnd/tools/linux/hndtools-arm-linux-2.6.36-uclibc-4.5.3/lib/gcc/arm-brcm-linux-uclibcgnueabi/4.5.3/libgcc.a(_dvmd_lnx.o)
 .debug_line    0x00000b42       0xa6 /projects/hnd/tools/linux/hndtools-arm-linux-2.6.36-uclibc-4.5.3/lib/gcc/arm-brcm-linux-uclibcgnueabi/4.5.3/libgcc.a(bpabi.o)
 .debug_line    0x00000be8      0x117 /projects/hnd/tools/linux/hndtools-arm-linux-2.6.36-uclibc-4.5.3/lib/gcc/arm-brcm-linux-uclibcgnueabi/4.5.3/libgcc.a(_divdi3.o)
 .debug_line    0x00000cff      0x108 /projects/hnd/tools/linux/hndtools-arm-linux-2.6.36-uclibc-4.5.3/lib/gcc/arm-brcm-linux-uclibcgnueabi/4.5.3/libgcc.a(_udivdi3.o)

.debug_frame    0x00000000      0x108
 *(.debug_frame)
 .debug_frame   0x00000000       0x20 /projects/hnd/tools/linux/hndtools-arm-linux-2.6.36-uclibc-4.5.3/lib/gcc/arm-brcm-linux-uclibcgnueabi/4.5.3/libgcc.a(_udivsi3.o)
 .debug_frame   0x00000020       0x20 /projects/hnd/tools/linux/hndtools-arm-linux-2.6.36-uclibc-4.5.3/lib/gcc/arm-brcm-linux-uclibcgnueabi/4.5.3/libgcc.a(_divsi3.o)
 .debug_frame   0x00000040       0x50 /projects/hnd/tools/linux/hndtools-arm-linux-2.6.36-uclibc-4.5.3/lib/gcc/arm-brcm-linux-uclibcgnueabi/4.5.3/libgcc.a(bpabi.o)
 .debug_frame   0x00000090       0x3c /projects/hnd/tools/linux/hndtools-arm-linux-2.6.36-uclibc-4.5.3/lib/gcc/arm-brcm-linux-uclibcgnueabi/4.5.3/libgcc.a(_divdi3.o)
 .debug_frame   0x000000cc       0x3c /projects/hnd/tools/linux/hndtools-arm-linux-2.6.36-uclibc-4.5.3/lib/gcc/arm-brcm-linux-uclibcgnueabi/4.5.3/libgcc.a(_udivdi3.o)

.debug_str      0x00000000      0x274
 *(.debug_str)
 .debug_str     0x00000000       0xdd /projects/hnd/tools/linux/hndtools-arm-linux-2.6.36-uclibc-4.5.3/lib/gcc/arm-brcm-linux-uclibcgnueabi/4.5.3/libgcc.a(bpabi.o)
 .debug_str     0x000000dd      0x18d /projects/hnd/tools/linux/hndtools-arm-linux-2.6.36-uclibc-4.5.3/lib/gcc/arm-brcm-linux-uclibcgnueabi/4.5.3/libgcc.a(_divdi3.o)
                                0x212 (size before relaxing)
 .debug_str     0x0000026a        0xa /projects/hnd/tools/linux/hndtools-arm-linux-2.6.36-uclibc-4.5.3/lib/gcc/arm-brcm-linux-uclibcgnueabi/4.5.3/libgcc.a(_udivdi3.o)
                                0x213 (size before relaxing)

.debug_loc      0x00000000     0x1290
 *(.debug_loc)
 .debug_loc     0x00000000       0xa0 /projects/hnd/tools/linux/hndtools-arm-linux-2.6.36-uclibc-4.5.3/lib/gcc/arm-brcm-linux-uclibcgnueabi/4.5.3/libgcc.a(bpabi.o)
 .debug_loc     0x000000a0      0x977 /projects/hnd/tools/linux/hndtools-arm-linux-2.6.36-uclibc-4.5.3/lib/gcc/arm-brcm-linux-uclibcgnueabi/4.5.3/libgcc.a(_divdi3.o)
 .debug_loc     0x00000a17      0x879 /projects/hnd/tools/linux/hndtools-arm-linux-2.6.36-uclibc-4.5.3/lib/gcc/arm-brcm-linux-uclibcgnueabi/4.5.3/libgcc.a(_udivdi3.o)

.debug_macinfo
 *(.debug_macinfo)

.debug_weaknames
 *(.debug_weaknames)

.debug_funcnames
 *(.debug_funcnames)

.debug_typenames
 *(.debug_typenames)

.debug_varnames
 *(.debug_varnames)

.debug_pubtypes
                0x00000000       0xb2
 *(.debug_pubtypes)
 .debug_pubtypes
                0x00000000       0x59 /projects/hnd/tools/linux/hndtools-arm-linux-2.6.36-uclibc-4.5.3/lib/gcc/arm-brcm-linux-uclibcgnueabi/4.5.3/libgcc.a(_divdi3.o)
 .debug_pubtypes
                0x00000059       0x59 /projects/hnd/tools/linux/hndtools-arm-linux-2.6.36-uclibc-4.5.3/lib/gcc/arm-brcm-linux-uclibcgnueabi/4.5.3/libgcc.a(_udivdi3.o)

.debug_ranges   0x00000000       0xf0
 *(.debug_ranges)
 .debug_ranges  0x00000000       0x78 /projects/hnd/tools/linux/hndtools-arm-linux-2.6.36-uclibc-4.5.3/lib/gcc/arm-brcm-linux-uclibcgnueabi/4.5.3/libgcc.a(_divdi3.o)
 .debug_ranges  0x00000078       0x78 /projects/hnd/tools/linux/hndtools-arm-linux-2.6.36-uclibc-4.5.3/lib/gcc/arm-brcm-linux-uclibcgnueabi/4.5.3/libgcc.a(_udivdi3.o)

.gnu.attributes
 *(.gnu.attributes)

.note.gnu.arm.ident
 *(.note.gnu.arm.ident)

/DISCARD/
 *(.note.GNU-stack)
 *(.gnu_debuglink)
 *(.gnu.lto_*)
OUTPUT(busybox_unstripped elf32-littlearm)
